ARM GAS  /tmp/cc8V7EGt.s 			page 1


   1              		.cpu cortex-m7
   2              		.arch armv7e-m
   3              		.fpu fpv5-sp-d16
   4              		.eabi_attribute 27, 1	@ Tag_ABI_HardFP_use
   5              		.eabi_attribute 28, 1	@ Tag_ABI_VFP_args
   6              		.eabi_attribute 20, 1	@ Tag_ABI_FP_denormal
   7              		.eabi_attribute 21, 1	@ Tag_ABI_FP_exceptions
   8              		.eabi_attribute 23, 3	@ Tag_ABI_FP_number_model
   9              		.eabi_attribute 24, 1	@ Tag_ABI_align8_needed
  10              		.eabi_attribute 25, 1	@ Tag_ABI_align8_preserved
  11              		.eabi_attribute 26, 1	@ Tag_ABI_enum_size
  12              		.eabi_attribute 30, 2	@ Tag_ABI_optimization_goals
  13              		.eabi_attribute 34, 1	@ Tag_CPU_unaligned_access
  14              		.eabi_attribute 18, 4	@ Tag_ABI_PCS_wchar_t
  15              		.file	"habzone.c"
  16              	@ GNU C17 (Fedora 14.1.0-3.fc42) version 14.1.0 (arm-none-eabi)
  17              	@	compiled by GNU C version 15.0.1 20250114 (Red Hat 15.0.1-0), GMP version 6.3.0, MPFR version 4.2
  18              	@ warning: MPFR header version 4.2.1 differs from library version 4.2.2.
  19              	@ GGC heuristics: --param ggc-min-expand=100 --param ggc-min-heapsize=131072
  20              	@ options passed: -mthumb -mcpu=cortex-m7 -mfloat-abi=hard -mfpu=fpv5-sp-d16 -mword-relocations -ma
  21              		.text
  22              	.Ltext0:
  23              		.cfi_sections	.debug_frame
  24              		.file 1 "src/habzone.c"
  25              		.section	.text.distance,"ax",%progbits
  26              		.align	1
  27              		.p2align 4,,15
  28              		.global	distance
  29              		.syntax unified
  30              		.thumb
  31              		.thumb_func
  32              		.type	distance, %function
  33              	distance:
  34              	.LVL0:
  35              	.LFB0:
   1:src/habzone.c **** #include "habzone.h"
   2:src/habzone.c **** 
   3:src/habzone.c **** //-------------------------------------------------------
   4:src/habzone.c **** // This implementation of the Kopparapu et al. (2013) 
   5:src/habzone.c **** // Habitable Zone calculator is based on the Python code 
   6:src/habzone.c **** // developed by Eelt at:
   7:src/habzone.c **** // https://github.com/Eelt/HabitableZoneCalculator.git
   8:src/habzone.c **** //-------------------------------------------------------
   9:src/habzone.c **** 
  10:src/habzone.c **** float distance( float lum, float seff )
  11:src/habzone.c **** {
  36              		.loc 1 11 1 view -0
  37              		.cfi_startproc
  38              		@ args = 0, pretend = 0, frame = 0
  39              		@ frame_needed = 0, uses_anonymous_args = 0
  40              		@ link register save eliminated.
  12:src/habzone.c **** 	return powf( lum / seff, 0.5 );
  41              		.loc 1 12 2 view .LVU1
  42              	@ src/habzone.c:11: {
  11:src/habzone.c **** 	return powf( lum / seff, 0.5 );
  43              		.loc 1 11 1 is_stmt 0 view .LVU2
  44 0000 F0EE607A 		vmov.f32	s15, s1	@ tmp120, seff
ARM GAS  /tmp/cc8V7EGt.s 			page 2


  45              	@ src/habzone.c:12: 	return powf( lum / seff, 0.5 );
  46              		.loc 1 12 9 view .LVU3
  47 0004 F6EE000A 		vmov.f32	s1, #5.0e-1	@,
  48              	.LVL1:
  49              		.loc 1 12 9 view .LVU4
  50 0008 80EE270A 		vdiv.f32	s0, s0, s15	@, tmp119, tmp120
  51              	.LVL2:
  52              		.loc 1 12 9 view .LVU5
  53 000c FFF7FEBF 		b	powf		@
  54              	.LVL3:
  55              		.loc 1 12 9 view .LVU6
  56              		.cfi_endproc
  57              	.LFE0:
  58              		.size	distance, .-distance
  59              		.section	.text.getBoundary,"ax",%progbits
  60              		.align	1
  61              		.p2align 4,,15
  62              		.global	getBoundary
  63              		.syntax unified
  64              		.thumb
  65              		.thumb_func
  66              		.type	getBoundary, %function
  67              	getBoundary:
  68              	.LVL4:
  69              	.LFB1:
  13:src/habzone.c **** }
  14:src/habzone.c **** 
  15:src/habzone.c **** float getBoundary( float temp, Zone zone, Planet planet )
  16:src/habzone.c **** {
  70              		.loc 1 16 1 is_stmt 1 view -0
  71              		.cfi_startproc
  72              		@ args = 0, pretend = 0, frame = 0
  73              		@ frame_needed = 0, uses_anonymous_args = 0
  17:src/habzone.c **** 	float tempdiff, seffSun, a, b, c, d;
  74              		.loc 1 17 2 view .LVU8
  18:src/habzone.c **** 
  19:src/habzone.c **** 	tempdiff = temp - 5780;
  75              		.loc 1 19 2 view .LVU9
  76              	@ src/habzone.c:19: 	tempdiff = temp - 5780;
  77              		.loc 1 19 11 is_stmt 0 view .LVU10
  78 0000 DFED377A 		vldr.32	s15, .L14	@ tmp130,
  79              	@ src/habzone.c:28: 	if ( zone == runawayGreenhouse ) {
  20:src/habzone.c **** 
  21:src/habzone.c **** 	if ( zone == recentVenus ) {
  22:src/habzone.c **** 		seffSun = 1.766;
  23:src/habzone.c **** 		a = 2.136e-4;
  24:src/habzone.c **** 		b = 2.533e-8;
  25:src/habzone.c **** 		c = -1.332e-11;
  26:src/habzone.c **** 		d = -3.097e-15;
  27:src/habzone.c **** 	}
  28:src/habzone.c **** 	if ( zone == runawayGreenhouse ) {
  80              		.loc 1 28 5 view .LVU11
  81 0004 0128     		cmp	r0, #1	@ zone,
  82              	@ src/habzone.c:16: {
  16:src/habzone.c **** 	float tempdiff, seffSun, a, b, c, d;
  83              		.loc 1 16 1 view .LVU12
  84 0006 08B5     		push	{r3, lr}	@
ARM GAS  /tmp/cc8V7EGt.s 			page 3


  85              	.LCFI0:
  86              		.cfi_def_cfa_offset 8
  87              		.cfi_offset 3, -8
  88              		.cfi_offset 14, -4
  89 0008 2DED048B 		vpush.64	{d8, d9}	@
  90              	.LCFI1:
  91              		.cfi_def_cfa_offset 24
  92              		.cfi_offset 80, -24
  93              		.cfi_offset 81, -20
  94              		.cfi_offset 82, -16
  95              		.cfi_offset 83, -12
  96              	@ src/habzone.c:19: 	tempdiff = temp - 5780;
  19:src/habzone.c **** 
  97              		.loc 1 19 11 view .LVU13
  98 000c 30EE678A 		vsub.f32	s16, s0, s15	@ tempdiff, tmp153, tmp130
  99              	.LVL5:
  21:src/habzone.c **** 		seffSun = 1.766;
 100              		.loc 1 21 2 is_stmt 1 view .LVU14
  22:src/habzone.c **** 		a = 2.136e-4;
 101              		.loc 1 22 3 view .LVU15
  23:src/habzone.c **** 		b = 2.533e-8;
 102              		.loc 1 23 3 view .LVU16
  24:src/habzone.c **** 		c = -1.332e-11;
 103              		.loc 1 24 3 view .LVU17
  25:src/habzone.c **** 		d = -3.097e-15;
 104              		.loc 1 25 3 view .LVU18
  26:src/habzone.c **** 	}
 105              		.loc 1 26 3 view .LVU19
 106              		.loc 1 28 2 view .LVU20
 107              	@ src/habzone.c:28: 	if ( zone == runawayGreenhouse ) {
 108              		.loc 1 28 5 is_stmt 0 view .LVU21
 109 0010 35D0     		beq	.L11		@,
  29:src/habzone.c **** 		if ( planet == superEarth ) {
  30:src/habzone.c **** 			seffSun = 1.188;
  31:src/habzone.c **** 			a = 1.433e-4;
  32:src/habzone.c **** 			b = 1.707e-8;
  33:src/habzone.c **** 			c = -8.968e-12;
  34:src/habzone.c **** 			d = -2.084e-15;
  35:src/habzone.c **** 		}
  36:src/habzone.c **** 		else if ( planet == subEarth ) {
  37:src/habzone.c **** 			seffSun = 0.99;
  38:src/habzone.c **** 			a = 1.209e-4;
  39:src/habzone.c **** 			b = 1.404e-8;
  40:src/habzone.c **** 			c = -7.418e-12;
  41:src/habzone.c **** 			d = -1.713e-15;
  42:src/habzone.c **** 		}
  43:src/habzone.c **** 		else { // values for Earth
  44:src/habzone.c **** 			seffSun = 1.107;
  45:src/habzone.c **** 			a = 1.332e-4;
  46:src/habzone.c **** 			b = 1.580e-8;
  47:src/habzone.c **** 			c = -8.308e-12;
  48:src/habzone.c **** 			d = -1.931e-15;
  49:src/habzone.c **** 		}
  50:src/habzone.c **** 	}
  51:src/habzone.c **** 	if ( zone == maximumGreenhouse ) {
 110              		.loc 1 51 2 is_stmt 1 view .LVU22
 111              	@ src/habzone.c:51: 	if ( zone == maximumGreenhouse ) {
ARM GAS  /tmp/cc8V7EGt.s 			page 4


 112              		.loc 1 51 5 is_stmt 0 view .LVU23
 113 0012 0228     		cmp	r0, #2	@ zone,
 114 0014 28D0     		beq	.L8		@,
  52:src/habzone.c **** 		seffSun = 0.356;
  53:src/habzone.c **** 		a = 6.171e-5;
  54:src/habzone.c **** 		b = 1.689e-9;
  55:src/habzone.c **** 		c = -3.198e-12;
  56:src/habzone.c **** 		d = -5.575e-16;
  57:src/habzone.c **** 	}
  58:src/habzone.c **** 	if ( zone == earlyMars ) {
 115              		.loc 1 58 2 is_stmt 1 view .LVU24
 116              	@ src/habzone.c:58: 	if ( zone == earlyMars ) {
 117              		.loc 1 58 5 is_stmt 0 view .LVU25
 118 0016 0328     		cmp	r0, #3	@ zone,
 119 0018 4BD1     		bne	.L12		@,
 120              	@ src/habzone.c:63: 		d = -5.011e-16;
  59:src/habzone.c **** 		seffSun = 0.320;
  60:src/habzone.c **** 		a = 5.547e-5;
  61:src/habzone.c **** 		b = 1.526e-9;
  62:src/habzone.c **** 		c = -2.874e-12;
  63:src/habzone.c **** 		d = -5.011e-16;
 121              		.loc 1 63 5 view .LVU26
 122 001a 9FED329A 		vldr.32	s18, .L14+4	@ d,
 123              	@ src/habzone.c:62: 		c = -2.874e-12;
  62:src/habzone.c **** 		d = -5.011e-16;
 124              		.loc 1 62 5 view .LVU27
 125 001e DFED329A 		vldr.32	s19, .L14+8	@ c,
 126              	@ src/habzone.c:61: 		b = 1.526e-9;
  61:src/habzone.c **** 		c = -2.874e-12;
 127              		.loc 1 61 5 view .LVU28
 128 0022 9FED327A 		vldr.32	s14, .L14+12	@ b,
 129              	@ src/habzone.c:60: 		a = 5.547e-5;
  60:src/habzone.c **** 		b = 1.526e-9;
 130              		.loc 1 60 5 view .LVU29
 131 0026 DFED327A 		vldr.32	s15, .L14+16	@ a,
 132              	@ src/habzone.c:59: 		seffSun = 0.320;
  59:src/habzone.c **** 		a = 5.547e-5;
 133              		.loc 1 59 11 view .LVU30
 134 002a DFED328A 		vldr.32	s17, .L14+20	@ seffSun,
 135              	.L5:
 136              	.LVL6:
  64:src/habzone.c **** 	}
  65:src/habzone.c **** 
  66:src/habzone.c **** 	return calculateHZ( seffSun, a, b, c, d, tempdiff );
 137              		.loc 1 66 2 is_stmt 1 view .LVU31
 138              	.LBB4:
 139              	.LBI4:
  67:src/habzone.c **** }
  68:src/habzone.c **** 
  69:src/habzone.c **** float calculateHZ( float seffSun, float a, float b, float c, float d, float tempdiff )
 140              		.loc 1 69 7 view .LVU32
 141              	.LBB5:
  70:src/habzone.c **** {
  71:src/habzone.c **** 	return seffSun + ( a * tempdiff ) + ( b * powf( tempdiff, 2 ) ) + ( c *powf( tempdiff, 3 ) ) + ( d
 142              		.loc 1 71 2 view .LVU33
 143              	@ src/habzone.c:71: 	return seffSun + ( a * tempdiff ) + ( b * powf( tempdiff, 2 ) ) + ( c *powf( t
 144              		.loc 1 71 17 is_stmt 0 view .LVU34
ARM GAS  /tmp/cc8V7EGt.s 			page 5


 145 002e E7EE888A 		vfma.f32	s17, s15, s16	@ _24, a, tempdiff
 146              	.LVL7:
 147              	@ src/habzone.c:71: 	return seffSun + ( a * tempdiff ) + ( b * powf( tempdiff, 2 ) ) + ( c *powf( t
 148              		.loc 1 71 44 view .LVU35
 149 0032 68EE087A 		vmul.f32	s15, s16, s16	@ powmult_54, tempdiff, tempdiff
 150              	.LVL8:
 151              	@ src/habzone.c:71: 	return seffSun + ( a * tempdiff ) + ( b * powf( tempdiff, 2 ) ) + ( c *powf( t
 152              		.loc 1 71 73 discriminator 1 view .LVU36
 153 0036 F0EE080A 		vmov.f32	s1, #3.0e+0	@,
 154 003a B0EE480A 		vmov.f32	s0, s16	@, tempdiff
 155              	.LVL9:
 156              	@ src/habzone.c:71: 	return seffSun + ( a * tempdiff ) + ( b * powf( tempdiff, 2 ) ) + ( c *powf( t
 157              		.loc 1 71 36 discriminator 1 view .LVU37
 158 003e E7EE278A 		vfma.f32	s17, s14, s15	@ _27, b, powmult_54
 159              	@ src/habzone.c:71: 	return seffSun + ( a * tempdiff ) + ( b * powf( tempdiff, 2 ) ) + ( c *powf( t
 160              		.loc 1 71 73 discriminator 1 view .LVU38
 161 0042 FFF7FEFF 		bl	powf		@
 162              	.LVL10:
 163              		.loc 1 71 73 discriminator 1 view .LVU39
 164 0046 F0EE407A 		vmov.f32	s15, s0	@ tmp156,
 165              	@ src/habzone.c:71: 	return seffSun + ( a * tempdiff ) + ( b * powf( tempdiff, 2 ) ) + ( c *powf( t
 166              		.loc 1 71 103 discriminator 2 view .LVU40
 167 004a F1EE000A 		vmov.f32	s1, #4.0e+0	@,
 168 004e B0EE480A 		vmov.f32	s0, s16	@, tempdiff
 169              	@ src/habzone.c:71: 	return seffSun + ( a * tempdiff ) + ( b * powf( tempdiff, 2 ) ) + ( c *powf( t
 170              		.loc 1 71 66 discriminator 2 view .LVU41
 171 0052 E9EEA78A 		vfma.f32	s17, s19, s15	@ _30, c, tmp156
 172              	@ src/habzone.c:71: 	return seffSun + ( a * tempdiff ) + ( b * powf( tempdiff, 2 ) ) + ( c *powf( t
 173              		.loc 1 71 103 discriminator 2 view .LVU42
 174 0056 FFF7FEFF 		bl	powf		@
 175              	.LVL11:
 176              		.loc 1 71 103 discriminator 2 view .LVU43
 177              	.LBE5:
 178              	.LBE4:
 179              	@ src/habzone.c:67: }
  67:src/habzone.c **** }
 180              		.loc 1 67 1 view .LVU44
 181 005a E9EE008A 		vfma.f32	s17, s18, s0	@ _30, d, tmp157
 182 005e B0EE680A 		vmov.f32	s0, s17	@, _30
 183 0062 BDEC048B 		vldm	sp!, {d8-d9}	@,
 184              	.LCFI2:
 185              		.cfi_remember_state
 186              		.cfi_restore 82
 187              		.cfi_restore 83
 188              		.cfi_restore 80
 189              		.cfi_restore 81
 190              		.cfi_def_cfa_offset 8
 191              	.LVL12:
  67:src/habzone.c **** }
 192              		.loc 1 67 1 view .LVU45
 193 0066 08BD     		pop	{r3, pc}	@
 194              	.LVL13:
 195              	.L8:
 196              	.LCFI3:
 197              		.cfi_restore_state
 198              	@ src/habzone.c:56: 		d = -5.575e-16;
  56:src/habzone.c **** 	}
ARM GAS  /tmp/cc8V7EGt.s 			page 6


 199              		.loc 1 56 5 view .LVU46
 200 0068 9FED239A 		vldr.32	s18, .L14+24	@ d,
 201              	@ src/habzone.c:55: 		c = -3.198e-12;
  55:src/habzone.c **** 		d = -5.575e-16;
 202              		.loc 1 55 5 view .LVU47
 203 006c DFED239A 		vldr.32	s19, .L14+28	@ c,
 204              	@ src/habzone.c:54: 		b = 1.689e-9;
  54:src/habzone.c **** 		c = -3.198e-12;
 205              		.loc 1 54 5 view .LVU48
 206 0070 9FED237A 		vldr.32	s14, .L14+32	@ b,
 207              	@ src/habzone.c:53: 		a = 6.171e-5;
  53:src/habzone.c **** 		b = 1.689e-9;
 208              		.loc 1 53 5 view .LVU49
 209 0074 DFED237A 		vldr.32	s15, .L14+36	@ a,
 210              	@ src/habzone.c:52: 		seffSun = 0.356;
  52:src/habzone.c **** 		a = 6.171e-5;
 211              		.loc 1 52 11 view .LVU50
 212 0078 DFED238A 		vldr.32	s17, .L14+40	@ seffSun,
 213 007c D7E7     		b	.L5		@
 214              	.L11:
  29:src/habzone.c **** 			seffSun = 1.188;
 215              		.loc 1 29 3 is_stmt 1 view .LVU51
 216              	@ src/habzone.c:29: 		if ( planet == superEarth ) {
  29:src/habzone.c **** 			seffSun = 1.188;
 217              		.loc 1 29 6 is_stmt 0 view .LVU52
 218 007e 0129     		cmp	r1, #1	@ planet,
 219 0080 22D0     		beq	.L6		@,
  36:src/habzone.c **** 			seffSun = 0.99;
 220              		.loc 1 36 8 is_stmt 1 view .LVU53
 221              	@ src/habzone.c:36: 		else if ( planet == subEarth ) {
  36:src/habzone.c **** 			seffSun = 0.99;
 222              		.loc 1 36 11 is_stmt 0 view .LVU54
 223 0082 0229     		cmp	r1, #2	@ planet,
 224 0084 0AD0     		beq	.L13		@,
 225              	@ src/habzone.c:48: 			d = -1.931e-15;
  48:src/habzone.c **** 		}
 226              		.loc 1 48 6 view .LVU55
 227 0086 9FED219A 		vldr.32	s18, .L14+44	@ d,
 228              	@ src/habzone.c:47: 			c = -8.308e-12;
  47:src/habzone.c **** 			d = -1.931e-15;
 229              		.loc 1 47 6 view .LVU56
 230 008a DFED219A 		vldr.32	s19, .L14+48	@ c,
 231              	@ src/habzone.c:46: 			b = 1.580e-8;
  46:src/habzone.c **** 			c = -8.308e-12;
 232              		.loc 1 46 6 view .LVU57
 233 008e 9FED217A 		vldr.32	s14, .L14+52	@ b,
 234              	@ src/habzone.c:45: 			a = 1.332e-4;
  45:src/habzone.c **** 			b = 1.580e-8;
 235              		.loc 1 45 6 view .LVU58
 236 0092 DFED217A 		vldr.32	s15, .L14+56	@ a,
 237              	@ src/habzone.c:44: 			seffSun = 1.107;
  44:src/habzone.c **** 			a = 1.332e-4;
 238              		.loc 1 44 12 view .LVU59
 239 0096 DFED218A 		vldr.32	s17, .L14+60	@ seffSun,
 240 009a C8E7     		b	.L5		@
 241              	.L13:
 242              	@ src/habzone.c:41: 			d = -1.713e-15;
ARM GAS  /tmp/cc8V7EGt.s 			page 7


  41:src/habzone.c **** 		}
 243              		.loc 1 41 6 view .LVU60
 244 009c 9FED209A 		vldr.32	s18, .L14+64	@ d,
 245              	@ src/habzone.c:40: 			c = -7.418e-12;
  40:src/habzone.c **** 			d = -1.713e-15;
 246              		.loc 1 40 6 view .LVU61
 247 00a0 DFED209A 		vldr.32	s19, .L14+68	@ c,
 248              	@ src/habzone.c:39: 			b = 1.404e-8;
  39:src/habzone.c **** 			c = -7.418e-12;
 249              		.loc 1 39 6 view .LVU62
 250 00a4 9FED207A 		vldr.32	s14, .L14+72	@ b,
 251              	@ src/habzone.c:38: 			a = 1.209e-4;
  38:src/habzone.c **** 			b = 1.404e-8;
 252              		.loc 1 38 6 view .LVU63
 253 00a8 DFED207A 		vldr.32	s15, .L14+76	@ a,
 254              	@ src/habzone.c:37: 			seffSun = 0.99;
  37:src/habzone.c **** 			a = 1.209e-4;
 255              		.loc 1 37 12 view .LVU64
 256 00ac DFED208A 		vldr.32	s17, .L14+80	@ seffSun,
 257 00b0 BDE7     		b	.L5		@
 258              	.L12:
 259              	@ src/habzone.c:58: 	if ( zone == earlyMars ) {
  58:src/habzone.c **** 		seffSun = 0.320;
 260              		.loc 1 58 5 view .LVU65
 261 00b2 9FED209A 		vldr.32	s18, .L14+84	@ d,
 262 00b6 DFED209A 		vldr.32	s19, .L14+88	@ c,
 263 00ba 9FED207A 		vldr.32	s14, .L14+92	@ b,
 264 00be DFED207A 		vldr.32	s15, .L14+96	@ a,
 265 00c2 DFED208A 		vldr.32	s17, .L14+100	@ seffSun,
 266 00c6 B2E7     		b	.L5		@
 267              	.L6:
 268              	@ src/habzone.c:34: 			d = -2.084e-15;
  34:src/habzone.c **** 		}
 269              		.loc 1 34 6 view .LVU66
 270 00c8 9FED1F9A 		vldr.32	s18, .L14+104	@ d,
 271              	@ src/habzone.c:33: 			c = -8.968e-12;
  33:src/habzone.c **** 			d = -2.084e-15;
 272              		.loc 1 33 6 view .LVU67
 273 00cc DFED1F9A 		vldr.32	s19, .L14+108	@ c,
 274              	@ src/habzone.c:32: 			b = 1.707e-8;
  32:src/habzone.c **** 			c = -8.968e-12;
 275              		.loc 1 32 6 view .LVU68
 276 00d0 9FED1F7A 		vldr.32	s14, .L14+112	@ b,
 277              	@ src/habzone.c:31: 			a = 1.433e-4;
  31:src/habzone.c **** 			b = 1.707e-8;
 278              		.loc 1 31 6 view .LVU69
 279 00d4 DFED1F7A 		vldr.32	s15, .L14+116	@ a,
 280              	@ src/habzone.c:30: 			seffSun = 1.188;
  30:src/habzone.c **** 			a = 1.433e-4;
 281              		.loc 1 30 12 view .LVU70
 282 00d8 DFED1F8A 		vldr.32	s17, .L14+120	@ seffSun,
 283 00dc A7E7     		b	.L5		@
 284              	.L15:
 285 00de 00BF     		.align	2
 286              	.L14:
 287 00e0 00A0B445 		.word	1169465344
 288 00e4 A76E10A6 		.word	-1508872537
ARM GAS  /tmp/cc8V7EGt.s 			page 8


 289 00e8 623D4AAC 		.word	-1404420766
 290 00ec 5ABBD130 		.word	819051354
 291 00f0 75A86838 		.word	946382965
 292 00f4 0AD7A33E 		.word	1050924810
 293 00f8 3DB020A6 		.word	-1507807171
 294 00fc 0C0A61AC 		.word	-1402926580
 295 0100 6822E830 		.word	820519528
 296 0104 4E6A8138 		.word	948005454
 297 0108 A245B63E 		.word	1052132770
 298 010c AA240BA7 		.word	-1492441942
 299 0110 E82712AD 		.word	-1391319064
 300 0114 91B88732 		.word	847755409
 301 0118 9AAB0B39 		.word	957066138
 302 011c 2DB28D3F 		.word	1066250797
 303 0120 8CDEF6A6 		.word	-1493770612
 304 0124 B47F02AD 		.word	-1392345164
 305 0128 93347132 		.word	846279827
 306 012c B18BFD38 		.word	956140465
 307 0130 A4707D3F 		.word	1065185444
 308 0134 91295FA7 		.word	-1486935663
 309 0138 F2536AAD 		.word	-1385540622
 310 013c 4295D932 		.word	853120322
 311 0140 D0F95F39 		.word	962591184
 312 0144 4A0CE23F 		.word	1071778890
 313 0148 042B16A7 		.word	-1491719420
 314 014c 48C41DAD 		.word	-1390558136
 315 0150 54A19232 		.word	848470356
 316 0154 CD421639 		.word	957760205
 317 0158 6210983F 		.word	1066930274
 318              		.cfi_endproc
 319              	.LFE1:
 320              		.size	getBoundary, .-getBoundary
 321              		.section	.text.calculateHZ,"ax",%progbits
 322              		.align	1
 323              		.p2align 4,,15
 324              		.global	calculateHZ
 325              		.syntax unified
 326              		.thumb
 327              		.thumb_func
 328              		.type	calculateHZ, %function
 329              	calculateHZ:
 330              	.LVL14:
 331              	.LFB2:
  70:src/habzone.c **** 	return seffSun + ( a * tempdiff ) + ( b * powf( tempdiff, 2 ) ) + ( c *powf( tempdiff, 3 ) ) + ( d
 332              		.loc 1 70 1 is_stmt 1 view -0
 333              		.cfi_startproc
 334              		@ args = 0, pretend = 0, frame = 0
 335              		@ frame_needed = 0, uses_anonymous_args = 0
 336              		.loc 1 71 2 view .LVU72
 337              	@ src/habzone.c:70: {
  70:src/habzone.c **** 	return seffSun + ( a * tempdiff ) + ( b * powf( tempdiff, 2 ) ) + ( c *powf( tempdiff, 3 ) ) + ( d
 338              		.loc 1 70 1 is_stmt 0 view .LVU73
 339 0000 B0EE607A 		vmov.f32	s14, s1	@ tmp130, a
 340              	@ src/habzone.c:71: 	return seffSun + ( a * tempdiff ) + ( b * powf( tempdiff, 2 ) ) + ( c *powf( t
 341              		.loc 1 71 17 view .LVU74
 342 0004 F0EE407A 		vmov.f32	s15, s0	@ tmp129, tmp129
 343              	@ src/habzone.c:71: 	return seffSun + ( a * tempdiff ) + ( b * powf( tempdiff, 2 ) ) + ( c *powf( t
ARM GAS  /tmp/cc8V7EGt.s 			page 9


 344              		.loc 1 71 73 discriminator 1 view .LVU75
 345 0008 F0EE080A 		vmov.f32	s1, #3.0e+0	@,
 346              	.LVL15:
 347              		.loc 1 71 73 discriminator 1 view .LVU76
 348 000c B0EE620A 		vmov.f32	s0, s5	@, tempdiff
 349              	.LVL16:
 350              	@ src/habzone.c:71: 	return seffSun + ( a * tempdiff ) + ( b * powf( tempdiff, 2 ) ) + ( c *powf( t
 351              		.loc 1 71 17 view .LVU77
 352 0010 E7EE227A 		vfma.f32	s15, s14, s5	@ tmp129, tmp130, tempdiff
 353              	.LVL17:
 354              	@ src/habzone.c:71: 	return seffSun + ( a * tempdiff ) + ( b * powf( tempdiff, 2 ) ) + ( c *powf( t
 355              		.loc 1 71 44 view .LVU78
 356 0014 22EEA27A 		vmul.f32	s14, s5, s5	@ powmult_22, tempdiff, tempdiff
 357              	.LVL18:
 358              	@ src/habzone.c:70: {
  70:src/habzone.c **** 	return seffSun + ( a * tempdiff ) + ( b * powf( tempdiff, 2 ) ) + ( c *powf( tempdiff, 3 ) ) + ( d
 359              		.loc 1 70 1 view .LVU79
 360 0018 08B5     		push	{r3, lr}	@
 361              	.LCFI4:
 362              		.cfi_def_cfa_offset 8
 363              		.cfi_offset 3, -8
 364              		.cfi_offset 14, -4
 365 001a 2DED048B 		vpush.64	{d8, d9}	@
 366              	.LCFI5:
 367              		.cfi_def_cfa_offset 24
 368              		.cfi_offset 80, -24
 369              		.cfi_offset 81, -20
 370              		.cfi_offset 82, -16
 371              		.cfi_offset 83, -12
 372              	@ src/habzone.c:71: 	return seffSun + ( a * tempdiff ) + ( b * powf( tempdiff, 2 ) ) + ( c *powf( t
 373              		.loc 1 71 36 discriminator 1 view .LVU80
 374 001e E1EE077A 		vfma.f32	s15, s2, s14	@ _2, tmp131, powmult_22
 375              	@ src/habzone.c:70: {
  70:src/habzone.c **** 	return seffSun + ( a * tempdiff ) + ( b * powf( tempdiff, 2 ) ) + ( c *powf( tempdiff, 3 ) ) + ( d
 376              		.loc 1 70 1 view .LVU81
 377 0022 F0EE628A 		vmov.f32	s17, s5	@ tempdiff, tmp134
 378 0026 F0EE619A 		vmov.f32	s19, s3	@ c, tmp132
 379 002a B0EE429A 		vmov.f32	s18, s4	@ d, tmp133
 380              	@ src/habzone.c:71: 	return seffSun + ( a * tempdiff ) + ( b * powf( tempdiff, 2 ) ) + ( c *powf( t
 381              		.loc 1 71 36 discriminator 1 view .LVU82
 382 002e B0EE678A 		vmov.f32	s16, s15	@ _5, _2
 383              	@ src/habzone.c:71: 	return seffSun + ( a * tempdiff ) + ( b * powf( tempdiff, 2 ) ) + ( c *powf( t
 384              		.loc 1 71 73 discriminator 1 view .LVU83
 385 0032 FFF7FEFF 		bl	powf		@
 386              	.LVL19:
 387              		.loc 1 71 73 discriminator 1 view .LVU84
 388 0036 F0EE407A 		vmov.f32	s15, s0	@ tmp135,
 389              	@ src/habzone.c:71: 	return seffSun + ( a * tempdiff ) + ( b * powf( tempdiff, 2 ) ) + ( c *powf( t
 390              		.loc 1 71 103 discriminator 2 view .LVU85
 391 003a F1EE000A 		vmov.f32	s1, #4.0e+0	@,
 392 003e B0EE680A 		vmov.f32	s0, s17	@, tempdiff
 393              	@ src/habzone.c:71: 	return seffSun + ( a * tempdiff ) + ( b * powf( tempdiff, 2 ) ) + ( c *powf( t
 394              		.loc 1 71 66 discriminator 2 view .LVU86
 395 0042 A7EEA98A 		vfma.f32	s16, s15, s19	@ _8, tmp135, c
 396              	@ src/habzone.c:71: 	return seffSun + ( a * tempdiff ) + ( b * powf( tempdiff, 2 ) ) + ( c *powf( t
 397              		.loc 1 71 103 discriminator 2 view .LVU87
 398 0046 FFF7FEFF 		bl	powf		@
ARM GAS  /tmp/cc8V7EGt.s 			page 10


 399              	.LVL20:
 400              	@ src/habzone.c:72: }
  72:src/habzone.c **** }
 401              		.loc 1 72 1 view .LVU88
 402 004a A0EE098A 		vfma.f32	s16, s0, s18	@ _8, tmp136, d
 403 004e B0EE480A 		vmov.f32	s0, s16	@, _8
 404 0052 BDEC048B 		vldm	sp!, {d8-d9}	@,
 405              	.LCFI6:
 406              		.cfi_restore 82
 407              		.cfi_restore 83
 408              		.cfi_restore 80
 409              		.cfi_restore 81
 410              		.cfi_def_cfa_offset 8
 411              	.LVL21:
 412              		.loc 1 72 1 view .LVU89
 413 0056 08BD     		pop	{r3, pc}	@
 414              		.cfi_endproc
 415              	.LFE2:
 416              		.size	calculateHZ, .-calculateHZ
 417              		.text
 418              	.Letext0:
 419              		.file 2 "src/habzone.h"
 420              		.file 3 "/usr/arm-none-eabi/include/math.h"