ARM GAS  /tmp/ccR8f7ao.s 			page 1


   1              		.cpu cortex-m7
   2              		.arch armv7e-m
   3              		.fpu fpv5-sp-d16
   4              		.eabi_attribute 27, 1	@ Tag_ABI_HardFP_use
   5              		.eabi_attribute 28, 1	@ Tag_ABI_VFP_args
   6              		.eabi_attribute 20, 1	@ Tag_ABI_FP_denormal
   7              		.eabi_attribute 21, 1	@ Tag_ABI_FP_exceptions
   8              		.eabi_attribute 23, 3	@ Tag_ABI_FP_number_model
   9              		.eabi_attribute 24, 1	@ Tag_ABI_align8_needed
  10              		.eabi_attribute 25, 1	@ Tag_ABI_align8_preserved
  11              		.eabi_attribute 26, 1	@ Tag_ABI_enum_size
  12              		.eabi_attribute 30, 2	@ Tag_ABI_optimization_goals
  13              		.eabi_attribute 34, 1	@ Tag_CPU_unaligned_access
  14              		.eabi_attribute 18, 4	@ Tag_ABI_PCS_wchar_t
  15              		.file	"main.c"
  16              	@ GNU C17 (Fedora 14.1.0-3.fc42) version 14.1.0 (arm-none-eabi)
  17              	@	compiled by GNU C version 15.0.1 20250114 (Red Hat 15.0.1-0), GMP version 6.3.0, MPFR version 4.2
  18              	@ warning: MPFR header version 4.2.1 differs from library version 4.2.2.
  19              	@ GGC heuristics: --param ggc-min-expand=100 --param ggc-min-heapsize=131072
  20              	@ options passed: -mthumb -mcpu=cortex-m7 -mfloat-abi=hard -mfpu=fpv5-sp-d16 -mword-relocations -ma
  21              		.text
  22              	.Ltext0:
  23              		.cfi_sections	.debug_frame
  24              		.file 1 "src/main.c"
  25              		.section	.text.reset,"ax",%progbits
  26              		.align	1
  27              		.p2align 4,,15
  28              		.global	reset
  29              		.syntax unified
  30              		.thumb
  31              		.thumb_func
  32              		.type	reset, %function
  33              	reset:
  34              	.LVL0:
  35              	.LFB17:
   1:src/main.c    **** #include "main.h"
   2:src/main.c    **** 
   3:src/main.c    **** PlaydateAPI* pd = NULL;
   4:src/main.c    **** LCDFont* font = NULL;
   5:src/main.c    **** PDMenuItem *resetItem = NULL;
   6:src/main.c    **** PDMenuItem *massItem = NULL;
   7:src/main.c    **** PDMenuItem *presetItem  = NULL;
   8:src/main.c    **** 
   9:src/main.c    **** Menu currentSelection;
  10:src/main.c    **** Star currentStar;
  11:src/main.c    **** 
  12:src/main.c    **** float temperature, luminosity;
  13:src/main.c    **** char * stringnum;
  14:src/main.c    **** int cursorposition;
  15:src/main.c    **** int tflag = 0;
  16:src/main.c    **** 
  17:src/main.c    **** int eventHandler( PlaydateAPI* pd, PDSystemEvent event, uint32_t arg )
  18:src/main.c    **** {
  19:src/main.c    **** 	(void)arg; // arg is currently only used for event = kEventKeyPressed
  20:src/main.c    **** 
  21:src/main.c    **** 	if ( event == kEventInit ) {
  22:src/main.c    **** 		const char* err;
ARM GAS  /tmp/ccR8f7ao.s 			page 2


  23:src/main.c    **** 		font = pd->graphics->loadFont( fontpath, &err );
  24:src/main.c    **** 		if ( font == NULL ) {
  25:src/main.c    **** 			pd->system->error( "%s:%i Couldn't load font %s: %s", __FILE__, __LINE__, fontpath, err );
  26:src/main.c    **** 		}
  27:src/main.c    **** 		pd->system->setUpdateCallback( update, pd );
  28:src/main.c    **** 
  29:src/main.c    **** 		resetItem  = pd->system->addMenuItem( "Reset", reset, pd );
  30:src/main.c    **** 		presetItem = pd->system->addOptionsMenuItem( "Star", presetlabels, NUM_PRESETS, selectPreset, pd 
  31:src/main.c    **** 
  32:src/main.c    **** 		reset( pd );
  33:src/main.c    **** 	}
  34:src/main.c    **** 	else if ( event == kEventResume ) {
  35:src/main.c    **** 		//
  36:src/main.c    **** 	}
  37:src/main.c    ****         else if ( event == kEventTerminate ) {
  38:src/main.c    **** 		//
  39:src/main.c    **** 	}
  40:src/main.c    **** 
  41:src/main.c    **** 	return 0;
  42:src/main.c    **** }
  43:src/main.c    **** 
  44:src/main.c    **** static int update( void* userdata )
  45:src/main.c    **** {
  46:src/main.c    ****         pd = userdata;
  47:src/main.c    **** 
  48:src/main.c    ****         pd->graphics->clear( kColorWhite );
  49:src/main.c    ****         pd->graphics->setFont( font );
  50:src/main.c    **** 
  51:src/main.c    ****         PDButtons pushed;
  52:src/main.c    ****         pd->system->getButtonState( NULL, &pushed, NULL );
  53:src/main.c    **** 
  54:src/main.c    **** 	// Use crank and Left/Right buttons to adjust temperature
  55:src/main.c    ****         float crankchange = 0;
  56:src/main.c    ****         if ( pd->system->isCrankDocked() == 0 ) {
  57:src/main.c    ****                 crankchange = pd->system->getCrankChange();
  58:src/main.c    **** 		if ( currentSelection == tempItem ) {
  59:src/main.c    **** 			temperature += crankchange;
  60:src/main.c    **** 		}
  61:src/main.c    **** 		else {
  62:src/main.c    **** 			luminosity += crankchange / 1000;
  63:src/main.c    **** 		}
  64:src/main.c    **** 			tflag = 1;
  65:src/main.c    ****         }
  66:src/main.c    **** 	if ( pushed & kButtonRight ) {
  67:src/main.c    **** 		if ( currentSelection == tempItem ) {
  68:src/main.c    **** 			temperature++;
  69:src/main.c    **** 		}
  70:src/main.c    **** 		else {
  71:src/main.c    **** 			luminosity+=0.001;
  72:src/main.c    **** 		}
  73:src/main.c    **** 		tflag = 1;
  74:src/main.c    **** 	}
  75:src/main.c    **** 	if ( pushed & kButtonLeft ) {
  76:src/main.c    **** 		if ( currentSelection == tempItem ) {
  77:src/main.c    **** 			temperature--;
  78:src/main.c    **** 		}
  79:src/main.c    **** 		else {
ARM GAS  /tmp/ccR8f7ao.s 			page 3


  80:src/main.c    **** 			luminosity-=0.001;
  81:src/main.c    **** 		}
  82:src/main.c    **** 			tflag = 1;
  83:src/main.c    **** 	}
  84:src/main.c    **** 	if ( pushed & kButtonB ) {
  85:src/main.c    **** 		reset( pd );
  86:src/main.c    **** 	}
  87:src/main.c    **** 
  88:src/main.c    **** 	// Update current star name
  89:src/main.c    **** 	if ( tflag == 1 ) {
  90:src/main.c    **** 		pd->system->removeMenuItem( presetItem );
  91:src/main.c    **** 		currentStar = checkCurrentStar( temperature, luminosity );
  92:src/main.c    **** 		if ( currentStar == -1 ) {
  93:src/main.c    **** 			presetItem = pd->system->addOptionsMenuItem( "Star", presetlabels, NUM_PRESETS+1, selectPreset, 
  94:src/main.c    **** 			pd->system->setMenuItemValue( presetItem, UserDefStar );
  95:src/main.c    **** 		}
  96:src/main.c    **** 		else {
  97:src/main.c    **** 			presetItem = pd->system->addOptionsMenuItem( "Star", presetlabels, NUM_PRESETS, selectPreset, pd
  98:src/main.c    **** 			pd->system->setMenuItemValue( presetItem, currentStar );
  99:src/main.c    **** 		}
 100:src/main.c    **** 		tflag = 0;
 101:src/main.c    **** 	}
 102:src/main.c    **** 
 103:src/main.c    **** 	// Use Up/Down buttons to move cursor
 104:src/main.c    **** 	if ( pushed & kButtonUp ) {
 105:src/main.c    **** 		cursorposition = CURSORINIT;
 106:src/main.c    **** 		currentSelection = tempItem;
 107:src/main.c    **** 	}
 108:src/main.c    **** 	if ( pushed & kButtonDown ) {
 109:src/main.c    **** 		cursorposition = CURSORINIT + CURSORDELTA;
 110:src/main.c    **** 		currentSelection = lumItem;
 111:src/main.c    **** 	}
 112:src/main.c    **** 
 113:src/main.c    **** 	// Keep inputs within the minimum and maximum bounds
 114:src/main.c    **** 	if ( temperature < 2500 ) {
 115:src/main.c    **** 		temperature = 2500;
 116:src/main.c    **** 	}
 117:src/main.c    **** 	else if ( temperature > 7200 ) {
 118:src/main.c    **** 		temperature = 7200;
 119:src/main.c    **** 	}
 120:src/main.c    **** 	if ( luminosity < 0.0 ) {
 121:src/main.c    **** 		luminosity = 0.0;
 122:src/main.c    **** 	}
 123:src/main.c    **** 	else if ( luminosity > 9.0 ) {
 124:src/main.c    **** 		luminosity = 9.0;
 125:src/main.c    **** 	}
 126:src/main.c    **** 
 127:src/main.c    **** 	// Display header text
 128:src/main.c    **** 	pd->system->formatString( &stringnum, "Habitable Zone Calculator, v%1.1f", VERSION );
 129:src/main.c    **** 	pd->graphics->drawText( stringnum, strlen( stringnum ), kASCIIEncoding, 3, 3 );
 130:src/main.c    **** 	pd->graphics->drawText( "__________________________________________________", 50, kASCIIEncoding, 
 131:src/main.c    **** 
 132:src/main.c    **** 	// Input values
 133:src/main.c    **** 	pd->system->formatString( &stringnum, "Stellar Temperature:  %4.0f Kelvin", temperature );
 134:src/main.c    **** 	pd->graphics->drawText( stringnum, strlen( stringnum ), kASCIIEncoding, LPADDING, CURSORINIT );
 135:src/main.c    **** 	pd->system->formatString( &stringnum, "Luminosity:           %1.3f solar units", luminosity );
 136:src/main.c    **** 	pd->graphics->drawText( stringnum, strlen( stringnum ), kASCIIEncoding, LPADDING, CURSORINIT + CUR
ARM GAS  /tmp/ccR8f7ao.s 			page 4


 137:src/main.c    **** 	pd->graphics->drawText( ">", 1, kASCIIEncoding, LPADDING - 10, cursorposition );
 138:src/main.c    **** 	pd->graphics->drawText( "__________________________________________________", 50, kASCIIEncoding, 
 139:src/main.c    **** 
 140:src/main.c    **** 	// Display output values
 141:src/main.c    **** 	pd->graphics->drawText( "Conservative Limits", 20, kASCIIEncoding, LPADDING, CURSORINIT + 3*CURSOR
 142:src/main.c    **** 
 143:src/main.c    **** 	pd->system->formatString( &stringnum, "Inner HZ - Runaway Greenhouse:  %2.2f AU", distance( lumino
 144:src/main.c    **** 	pd->graphics->drawText( stringnum, strlen( stringnum ), kASCIIEncoding, LPADDING + 30, CURSORINIT 
 145:src/main.c    **** 
 146:src/main.c    **** 	pd->system->formatString( &stringnum, "Outer HZ - Maximum Greenhouse:  %2.2f AU", distance( lumino
 147:src/main.c    **** 	pd->graphics->drawText( stringnum, strlen( stringnum ), kASCIIEncoding, LPADDING + 30, CURSORINIT 
 148:src/main.c    **** 
 149:src/main.c    **** 	pd->graphics->drawText( "Optimistic Limits", 20, kASCIIEncoding, LPADDING, CURSORINIT + 6*CURSORDE
 150:src/main.c    **** 
 151:src/main.c    **** 	pd->system->formatString( &stringnum, "Inner HZ - Recent Venus:        %2.2f AU", distance( lumino
 152:src/main.c    **** 	pd->graphics->drawText( stringnum, strlen( stringnum ), kASCIIEncoding, LPADDING + 30, CURSORINIT 
 153:src/main.c    **** 
 154:src/main.c    **** 	pd->system->formatString( &stringnum, "Outer HZ - Early Mars:          %2.2f AU", distance( lumino
 155:src/main.c    **** 	pd->graphics->drawText( stringnum, strlen( stringnum ), kASCIIEncoding, LPADDING + 30, CURSORINIT 
 156:src/main.c    **** 
 157:src/main.c    **** 	return 1;
 158:src/main.c    **** }
 159:src/main.c    **** 
 160:src/main.c    **** void reset( void* userdata )
 161:src/main.c    **** {
  36              		.loc 1 161 1 view -0
  37              		.cfi_startproc
  38              		@ args = 0, pretend = 0, frame = 0
  39              		@ frame_needed = 0, uses_anonymous_args = 0
 162:src/main.c    **** 	PlaydateAPI* pd = userdata;
  40              		.loc 1 162 2 view .LVU1
 163:src/main.c    **** 	pd->system->setMenuItemValue( presetItem, Sun );
  41              		.loc 1 163 2 view .LVU2
  42 0000 094A     		ldr	r2, .L4	@ tmp118,
  43 0002 0021     		movs	r1, #0	@,
  44              	@ src/main.c:161: {
 161:src/main.c    **** 	PlaydateAPI* pd = userdata;
  45              		.loc 1 161 1 is_stmt 0 view .LVU3
  46 0004 08B5     		push	{r3, lr}	@
  47              	.LCFI0:
  48              		.cfi_def_cfa_offset 8
  49              		.cfi_offset 3, -8
  50              		.cfi_offset 14, -4
  51              	@ src/main.c:163: 	pd->system->setMenuItemValue( presetItem, Sun );
  52              		.loc 1 163 12 view .LVU4
  53 0006 0368     		ldr	r3, [r0]	@ MEM[(struct PlaydateAPI *)userdata_4(D)].system, MEM[(struct PlaydateAPI *)userdata
  54              	@ src/main.c:163: 	pd->system->setMenuItemValue( presetItem, Sun );
  55              		.loc 1 163 2 view .LVU5
  56 0008 1068     		ldr	r0, [r2]	@, presetItem
  57              	.LVL1:
  58              		.loc 1 163 2 view .LVU6
  59 000a 5B6E     		ldr	r3, [r3, #100]	@ _1->setMenuItemValue, _1->setMenuItemValue
  60 000c 9847     		blx	r3		@ _1->setMenuItemValue
  61              	.LVL2:
 164:src/main.c    **** 
 165:src/main.c    **** 	changePresetStar( &temperature, &luminosity, Sun );
  62              		.loc 1 165 2 is_stmt 1 view .LVU7
ARM GAS  /tmp/ccR8f7ao.s 			page 5


  63 000e 0022     		movs	r2, #0	@,
  64 0010 0649     		ldr	r1, .L4+4	@,
  65 0012 0748     		ldr	r0, .L4+8	@,
  66 0014 FFF7FEFF 		bl	changePresetStar		@
  67              	.LVL3:
 166:src/main.c    **** 	cursorposition = CURSORINIT;
  68              		.loc 1 166 2 view .LVU8
  69              	@ src/main.c:166: 	cursorposition = CURSORINIT;
  70              		.loc 1 166 17 is_stmt 0 view .LVU9
  71 0018 0649     		ldr	r1, .L4+12	@ tmp124,
  72 001a 1E20     		movs	r0, #30	@ tmp125,
  73              	@ src/main.c:167: 	currentSelection = tempItem;
 167:src/main.c    **** 	currentSelection = tempItem;
  74              		.loc 1 167 19 view .LVU10
  75 001c 064B     		ldr	r3, .L4+16	@ tmp126,
  76 001e 0022     		movs	r2, #0	@ tmp127,
  77              	@ src/main.c:166: 	cursorposition = CURSORINIT;
 166:src/main.c    **** 	cursorposition = CURSORINIT;
  78              		.loc 1 166 17 view .LVU11
  79 0020 0860     		str	r0, [r1]	@ tmp125, cursorposition
  80              		.loc 1 167 2 is_stmt 1 view .LVU12
  81              	@ src/main.c:167: 	currentSelection = tempItem;
  82              		.loc 1 167 19 is_stmt 0 view .LVU13
  83 0022 1A70     		strb	r2, [r3]	@ tmp127, currentSelection
 168:src/main.c    **** 
 169:src/main.c    **** 	return;
  84              		.loc 1 169 2 is_stmt 1 view .LVU14
  85              	@ src/main.c:170: }
 170:src/main.c    **** }
  86              		.loc 1 170 1 is_stmt 0 view .LVU15
  87 0024 08BD     		pop	{r3, pc}	@
  88              	.L5:
  89 0026 00BF     		.align	2
  90              	.L4:
  91 0028 00000000 		.word	presetItem
  92 002c 00000000 		.word	luminosity
  93 0030 00000000 		.word	temperature
  94 0034 00000000 		.word	cursorposition
  95 0038 00000000 		.word	currentSelection
  96              		.cfi_endproc
  97              	.LFE17:
  98              		.size	reset, .-reset
  99              		.section	.text.selectPreset,"ax",%progbits
 100              		.align	1
 101              		.p2align 4,,15
 102              		.global	selectPreset
 103              		.syntax unified
 104              		.thumb
 105              		.thumb_func
 106              		.type	selectPreset, %function
 107              	selectPreset:
 108              	.LVL4:
 109              	.LFB18:
 171:src/main.c    **** 
 172:src/main.c    **** void selectPreset( void* userdata )
 173:src/main.c    **** {
 110              		.loc 1 173 1 is_stmt 1 view -0
ARM GAS  /tmp/ccR8f7ao.s 			page 6


 111              		.cfi_startproc
 112              		@ args = 0, pretend = 0, frame = 0
 113              		@ frame_needed = 0, uses_anonymous_args = 0
 174:src/main.c    **** 	PlaydateAPI* pd = userdata;
 114              		.loc 1 174 2 view .LVU17
 175:src/main.c    **** 	currentStar = pd->system->getMenuItemValue( presetItem );
 115              		.loc 1 175 2 view .LVU18
 116              	@ src/main.c:175: 	currentStar = pd->system->getMenuItemValue( presetItem );
 117              		.loc 1 175 16 is_stmt 0 view .LVU19
 118 0000 074A     		ldr	r2, .L8	@ tmp120,
 119              	@ src/main.c:173: {
 173:src/main.c    **** 	PlaydateAPI* pd = userdata;
 120              		.loc 1 173 1 view .LVU20
 121 0002 08B5     		push	{r3, lr}	@
 122              	.LCFI1:
 123              		.cfi_def_cfa_offset 8
 124              		.cfi_offset 3, -8
 125              		.cfi_offset 14, -4
 126              	@ src/main.c:175: 	currentStar = pd->system->getMenuItemValue( presetItem );
 127              		.loc 1 175 26 view .LVU21
 128 0004 0368     		ldr	r3, [r0]	@ MEM[(struct PlaydateAPI *)userdata_6(D)].system, MEM[(struct PlaydateAPI *)userdata
 129              	@ src/main.c:175: 	currentStar = pd->system->getMenuItemValue( presetItem );
 130              		.loc 1 175 16 view .LVU22
 131 0006 1068     		ldr	r0, [r2]	@, presetItem
 132              	.LVL5:
 133              		.loc 1 175 16 view .LVU23
 134 0008 1B6E     		ldr	r3, [r3, #96]	@ _1->getMenuItemValue, _1->getMenuItemValue
 135 000a 9847     		blx	r3		@ _1->getMenuItemValue
 136              	.LVL6:
 137              	@ src/main.c:175: 	currentStar = pd->system->getMenuItemValue( presetItem );
 138              		.loc 1 175 14 discriminator 1 view .LVU24
 139 000c 054B     		ldr	r3, .L8+4	@ tmp124,
 140              	@ src/main.c:175: 	currentStar = pd->system->getMenuItemValue( presetItem );
 141              		.loc 1 175 16 discriminator 1 view .LVU25
 142 000e C2B2     		uxtb	r2, r0	@ _5, tmp129
 143              	@ src/main.c:177: 	changePresetStar( &temperature, &luminosity, currentStar );
 176:src/main.c    **** 
 177:src/main.c    **** 	changePresetStar( &temperature, &luminosity, currentStar );
 144              		.loc 1 177 2 view .LVU26
 145 0010 0549     		ldr	r1, .L8+8	@,
 146 0012 0648     		ldr	r0, .L8+12	@,
 147              	@ src/main.c:175: 	currentStar = pd->system->getMenuItemValue( presetItem );
 175:src/main.c    **** 
 148              		.loc 1 175 14 discriminator 1 view .LVU27
 149 0014 1A70     		strb	r2, [r3]	@ _5, currentStar
 150              		.loc 1 177 2 is_stmt 1 view .LVU28
 151              	@ src/main.c:180: }
 178:src/main.c    **** 
 179:src/main.c    **** 	return;
 180:src/main.c    **** }
 152              		.loc 1 180 1 is_stmt 0 view .LVU29
 153 0016 BDE80840 		pop	{r3, lr}	@
 154              	.LCFI2:
 155              		.cfi_restore 14
 156              		.cfi_restore 3
 157              		.cfi_def_cfa_offset 0
 158              	@ src/main.c:177: 	changePresetStar( &temperature, &luminosity, currentStar );
ARM GAS  /tmp/ccR8f7ao.s 			page 7


 177:src/main.c    **** 
 159              		.loc 1 177 2 view .LVU30
 160 001a FFF7FEBF 		b	changePresetStar		@
 161              	.LVL7:
 162              	.L9:
 163 001e 00BF     		.align	2
 164              	.L8:
 165 0020 00000000 		.word	presetItem
 166 0024 00000000 		.word	currentStar
 167 0028 00000000 		.word	luminosity
 168 002c 00000000 		.word	temperature
 169              		.cfi_endproc
 170              	.LFE18:
 171              		.size	selectPreset, .-selectPreset
 172              		.section	.rodata.update.str1.4,"aMS",%progbits,1
 173              		.align	2
 174              	.LC0:
 175 0000 53746172 		.ascii	"Star\000"
 175      00
 176 0005 000000   		.align	2
 177              	.LC1:
 178 0008 48616269 		.ascii	"Habitable Zone Calculator, v%1.1f\000"
 178      7461626C 
 178      65205A6F 
 178      6E652043 
 178      616C6375 
 179 002a 0000     		.align	2
 180              	.LC2:
 181 002c 5F5F5F5F 		.ascii	"__________________________________________________\000"
 181      5F5F5F5F 
 181      5F5F5F5F 
 181      5F5F5F5F 
 181      5F5F5F5F 
 182 005f 00       		.align	2
 183              	.LC3:
 184 0060 5374656C 		.ascii	"Stellar Temperature:  %4.0f Kelvin\000"
 184      6C617220 
 184      54656D70 
 184      65726174 
 184      7572653A 
 185 0083 00       		.align	2
 186              	.LC4:
 187 0084 4C756D69 		.ascii	"Luminosity:           %1.3f solar units\000"
 187      6E6F7369 
 187      74793A20 
 187      20202020 
 187      20202020 
 188              		.align	2
 189              	.LC5:
 190 00ac 3E00     		.ascii	">\000"
 191 00ae 0000     		.align	2
 192              	.LC6:
 193 00b0 436F6E73 		.ascii	"Conservative Limits\000"
 193      65727661 
 193      74697665 
 193      204C696D 
 193      69747300 
ARM GAS  /tmp/ccR8f7ao.s 			page 8


 194              		.align	2
 195              	.LC7:
 196 00c4 496E6E65 		.ascii	"Inner HZ - Runaway Greenhouse:  %2.2f AU\000"
 196      7220485A 
 196      202D2052 
 196      756E6177 
 196      61792047 
 197 00ed 000000   		.align	2
 198              	.LC8:
 199 00f0 4F757465 		.ascii	"Outer HZ - Maximum Greenhouse:  %2.2f AU\000"
 199      7220485A 
 199      202D204D 
 199      6178696D 
 199      756D2047 
 200 0119 000000   		.align	2
 201              	.LC9:
 202 011c 4F707469 		.ascii	"Optimistic Limits\000"
 202      6D697374 
 202      6963204C 
 202      696D6974 
 202      7300
 203 012e 0000     		.align	2
 204              	.LC10:
 205 0130 496E6E65 		.ascii	"Inner HZ - Recent Venus:        %2.2f AU\000"
 205      7220485A 
 205      202D2052 
 205      6563656E 
 205      74205665 
 206 0159 000000   		.align	2
 207              	.LC11:
 208 015c 4F757465 		.ascii	"Outer HZ - Early Mars:          %2.2f AU\000"
 208      7220485A 
 208      202D2045 
 208      61726C79 
 208      204D6172 
 209              		.section	.text.update,"ax",%progbits
 210              		.align	1
 211              		.p2align 4,,15
 212              		.syntax unified
 213              		.thumb
 214              		.thumb_func
 215              		.type	update, %function
 216              	update:
 217              	.LVL8:
 218              	.LFB16:
  45:src/main.c    ****         pd = userdata;
 219              		.loc 1 45 1 is_stmt 1 view -0
 220              		.cfi_startproc
 221              		@ args = 0, pretend = 0, frame = 8
 222              		@ frame_needed = 0, uses_anonymous_args = 0
  46:src/main.c    **** 
 223              		.loc 1 46 9 view .LVU32
 224              	@ src/main.c:45: {
  45:src/main.c    ****         pd = userdata;
 225              		.loc 1 45 1 is_stmt 0 view .LVU33
 226 0000 0346     		mov	r3, r0	@ tmp567, userdata
 227              	@ src/main.c:48:         pd->graphics->clear( kColorWhite );
ARM GAS  /tmp/ccR8f7ao.s 			page 9


  48:src/main.c    ****         pd->graphics->setFont( font );
 228              		.loc 1 48 9 view .LVU34
 229 0002 0120     		movs	r0, #1	@,
 230              	.LVL9:
 231              	@ src/main.c:45: {
  45:src/main.c    ****         pd = userdata;
 232              		.loc 1 45 1 view .LVU35
 233 0004 2DE9F04F 		push	{r4, r5, r6, r7, r8, r9, r10, fp, lr}	@
 234              	.LCFI3:
 235              		.cfi_def_cfa_offset 36
 236              		.cfi_offset 4, -36
 237              		.cfi_offset 5, -32
 238              		.cfi_offset 6, -28
 239              		.cfi_offset 7, -24
 240              		.cfi_offset 8, -20
 241              		.cfi_offset 9, -16
 242              		.cfi_offset 10, -12
 243              		.cfi_offset 11, -8
 244              		.cfi_offset 14, -4
 245              	@ src/main.c:48:         pd->graphics->clear( kColorWhite );
  48:src/main.c    ****         pd->graphics->setFont( font );
 246              		.loc 1 48 21 view .LVU36
 247 0008 9A68     		ldr	r2, [r3, #8]	@ MEM[(struct PlaydateAPI *)userdata_164(D)].graphics, MEM[(struct PlaydateAPI *)
 248              	@ src/main.c:46:         pd = userdata;
  46:src/main.c    **** 
 249              		.loc 1 46 12 view .LVU37
 250 000a 474C     		ldr	r4, .L62	@ tmp560,
 251              	@ src/main.c:45: {
  45:src/main.c    ****         pd = userdata;
 252              		.loc 1 45 1 view .LVU38
 253 000c 2DED028B 		vpush.64	{d8}	@
 254              	.LCFI4:
 255              		.cfi_def_cfa_offset 44
 256              		.cfi_offset 80, -44
 257              		.cfi_offset 81, -40
 258 0010 85B0     		sub	sp, sp, #20	@,,
 259              	.LCFI5:
 260              		.cfi_def_cfa_offset 64
 261              	@ src/main.c:46:         pd = userdata;
  46:src/main.c    **** 
 262              		.loc 1 46 12 view .LVU39
 263 0012 2360     		str	r3, [r4]	@ userdata, pd
  48:src/main.c    ****         pd->graphics->setFont( font );
 264              		.loc 1 48 9 is_stmt 1 view .LVU40
 265 0014 5368     		ldr	r3, [r2, #4]	@ _1->clear, _1->clear
 266              	.LVL10:
  48:src/main.c    ****         pd->graphics->setFont( font );
 267              		.loc 1 48 9 is_stmt 0 view .LVU41
 268 0016 9847     		blx	r3		@ _1->clear
 269              	.LVL11:
  49:src/main.c    **** 
 270              		.loc 1 49 9 is_stmt 1 view .LVU42
 271              	@ src/main.c:49:         pd->graphics->setFont( font );
  49:src/main.c    **** 
 272              		.loc 1 49 11 is_stmt 0 view .LVU43
 273 0018 2368     		ldr	r3, [r4]	@ pd, pd
 274              	@ src/main.c:49:         pd->graphics->setFont( font );
ARM GAS  /tmp/ccR8f7ao.s 			page 10


  49:src/main.c    **** 
 275              		.loc 1 49 9 view .LVU44
 276 001a 444A     		ldr	r2, .L62+4	@ tmp278,
 277              	@ src/main.c:49:         pd->graphics->setFont( font );
  49:src/main.c    **** 
 278              		.loc 1 49 21 view .LVU45
 279 001c 9B68     		ldr	r3, [r3, #8]	@ pd.5_3->graphics, pd.5_3->graphics
 280              	@ src/main.c:49:         pd->graphics->setFont( font );
  49:src/main.c    **** 
 281              		.loc 1 49 9 view .LVU46
 282 001e 1068     		ldr	r0, [r2]	@, font
 283 0020 5B6A     		ldr	r3, [r3, #36]	@ _4->setFont, _4->setFont
 284 0022 9847     		blx	r3		@ _4->setFont
 285              	.LVL12:
  51:src/main.c    ****         pd->system->getButtonState( NULL, &pushed, NULL );
 286              		.loc 1 51 9 is_stmt 1 view .LVU47
  52:src/main.c    **** 
 287              		.loc 1 52 9 view .LVU48
 288              	@ src/main.c:52:         pd->system->getButtonState( NULL, &pushed, NULL );
  52:src/main.c    **** 
 289              		.loc 1 52 11 is_stmt 0 view .LVU49
 290 0024 2368     		ldr	r3, [r4]	@ pd, pd
 291              	@ src/main.c:52:         pd->system->getButtonState( NULL, &pushed, NULL );
  52:src/main.c    **** 
 292              		.loc 1 52 9 view .LVU50
 293 0026 0022     		movs	r2, #0	@,
 294 0028 0DF10F01 		add	r1, sp, #15	@,,
 295              	@ src/main.c:52:         pd->system->getButtonState( NULL, &pushed, NULL );
  52:src/main.c    **** 
 296              		.loc 1 52 19 view .LVU51
 297 002c 1B68     		ldr	r3, [r3]	@ pd.7_7->system, pd.7_7->system
 298              	@ src/main.c:52:         pd->system->getButtonState( NULL, &pushed, NULL );
  52:src/main.c    **** 
 299              		.loc 1 52 9 view .LVU52
 300 002e 1046     		mov	r0, r2	@,
 301 0030 5B6A     		ldr	r3, [r3, #36]	@ _8->getButtonState, _8->getButtonState
 302 0032 9847     		blx	r3		@ _8->getButtonState
 303              	.LVL13:
  55:src/main.c    ****         if ( pd->system->isCrankDocked() == 0 ) {
 304              		.loc 1 55 9 is_stmt 1 view .LVU53
  56:src/main.c    ****                 crankchange = pd->system->getCrankChange();
 305              		.loc 1 56 9 view .LVU54
 306              	@ src/main.c:56:         if ( pd->system->isCrankDocked() == 0 ) {
  56:src/main.c    ****                 crankchange = pd->system->getCrankChange();
 307              		.loc 1 56 16 is_stmt 0 view .LVU55
 308 0034 2368     		ldr	r3, [r4]	@ pd, pd
 309              	@ src/main.c:56:         if ( pd->system->isCrankDocked() == 0 ) {
  56:src/main.c    ****                 crankchange = pd->system->getCrankChange();
 310              		.loc 1 56 24 view .LVU56
 311 0036 1B68     		ldr	r3, [r3]	@ pd.8_10->system, pd.8_10->system
 312              	@ src/main.c:56:         if ( pd->system->isCrankDocked() == 0 ) {
  56:src/main.c    ****                 crankchange = pd->system->getCrankChange();
 313              		.loc 1 56 14 view .LVU57
 314 0038 9B6B     		ldr	r3, [r3, #56]	@ _11->isCrankDocked, _11->isCrankDocked
 315 003a 9847     		blx	r3		@ _11->isCrankDocked
 316              	.LVL14:
 317              	@ src/main.c:56:         if ( pd->system->isCrankDocked() == 0 ) {
ARM GAS  /tmp/ccR8f7ao.s 			page 11


  56:src/main.c    ****                 crankchange = pd->system->getCrankChange();
 318              		.loc 1 56 12 discriminator 1 view .LVU58
 319 003c 0028     		cmp	r0, #0	@ tmp568
 320 003e 58D0     		beq	.L52	@
 321 0040 3B4E     		ldr	r6, .L62+8	@ tmp561,
 322 0042 3C4F     		ldr	r7, .L62+12	@ tmp563,
 323 0044 3C4D     		ldr	r5, .L62+16	@ tmp562,
 324              	.LVL15:
 325              	.L11:
  66:src/main.c    **** 		if ( currentSelection == tempItem ) {
 326              		.loc 1 66 2 is_stmt 1 view .LVU59
 327              	@ src/main.c:66: 	if ( pushed & kButtonRight ) {
  66:src/main.c    **** 		if ( currentSelection == tempItem ) {
 328              		.loc 1 66 14 is_stmt 0 view .LVU60
 329 0046 9DF80F30 		ldrb	r3, [sp, #15]	@ zero_extendqisi2	@ pushed.13_23, pushed
 330              	@ src/main.c:66: 	if ( pushed & kButtonRight ) {
  66:src/main.c    **** 		if ( currentSelection == tempItem ) {
 331              		.loc 1 66 5 view .LVU61
 332 004a 9807     		lsls	r0, r3, #30	@, pushed.13_23,
 333 004c 10D5     		bpl	.L14		@,
  67:src/main.c    **** 			temperature++;
 334              		.loc 1 67 3 is_stmt 1 view .LVU62
 335              	@ src/main.c:67: 		if ( currentSelection == tempItem ) {
  67:src/main.c    **** 			temperature++;
 336              		.loc 1 67 25 is_stmt 0 view .LVU63
 337 004e DFF80081 		ldr	r8, .L62+40	@ tmp559,
 338              	@ src/main.c:67: 		if ( currentSelection == tempItem ) {
  67:src/main.c    **** 			temperature++;
 339              		.loc 1 67 6 view .LVU64
 340 0052 98F80020 		ldrb	r2, [r8]	@ zero_extendqisi2	@ currentSelection, currentSelection
 341 0056 002A     		cmp	r2, #0	@ currentSelection
 342 0058 00F04482 		beq	.L57	@
  71:src/main.c    **** 		}
 343              		.loc 1 71 4 is_stmt 1 view .LVU65
 344              	@ src/main.c:71: 			luminosity+=0.001;
  71:src/main.c    **** 		}
 345              		.loc 1 71 14 is_stmt 0 view .LVU66
 346 005c D7ED007A 		vldr.32	s15, [r7]	@ luminosity, luminosity
 347 0060 9FED367A 		vldr.32	s14, .L62+20	@ tmp325,
 348 0064 77EE877A 		vadd.f32	s15, s15, s14	@ _28, luminosity, tmp325
 349 0068 C7ED007A 		vstr.32	s15, [r7]	@ _28, luminosity
 350              	.L16:
  73:src/main.c    **** 	}
 351              		.loc 1 73 3 is_stmt 1 view .LVU67
 352              	@ src/main.c:73: 		tflag = 1;
  73:src/main.c    **** 	}
 353              		.loc 1 73 9 is_stmt 0 view .LVU68
 354 006c 0122     		movs	r2, #1	@ tmp327,
 355 006e 2A60     		str	r2, [r5]	@ tmp327, tflag
 356              	.L14:
  75:src/main.c    **** 		if ( currentSelection == tempItem ) {
 357              		.loc 1 75 2 is_stmt 1 view .LVU69
 358              	@ src/main.c:75: 	if ( pushed & kButtonLeft ) {
  75:src/main.c    **** 		if ( currentSelection == tempItem ) {
 359              		.loc 1 75 5 is_stmt 0 view .LVU70
 360 0070 D907     		lsls	r1, r3, #31	@, pushed.13_23,
 361 0072 03F01002 		and	r2, r3, #16	@ _248, pushed.13_23,
ARM GAS  /tmp/ccR8f7ao.s 			page 12


 362 0076 73D5     		bpl	.L17		@,
  76:src/main.c    **** 			temperature--;
 363              		.loc 1 76 3 is_stmt 1 view .LVU71
 364              	@ src/main.c:76: 		if ( currentSelection == tempItem ) {
  76:src/main.c    **** 			temperature--;
 365              		.loc 1 76 25 is_stmt 0 view .LVU72
 366 0078 DFF8D480 		ldr	r8, .L62+40	@ tmp559,
 367              	@ src/main.c:76: 		if ( currentSelection == tempItem ) {
  76:src/main.c    **** 			temperature--;
 368              		.loc 1 76 6 view .LVU73
 369 007c 98F80030 		ldrb	r3, [r8]	@ zero_extendqisi2	@ currentSelection, currentSelection
 370 0080 002B     		cmp	r3, #0	@ currentSelection
 371 0082 00F0E481 		beq	.L58	@
  80:src/main.c    **** 		}
 372              		.loc 1 80 4 is_stmt 1 view .LVU74
  82:src/main.c    **** 	}
 373              		.loc 1 82 4 view .LVU75
 374              	@ src/main.c:80: 			luminosity-=0.001;
  80:src/main.c    **** 		}
 375              		.loc 1 80 14 is_stmt 0 view .LVU76
 376 0086 D7ED007A 		vldr.32	s15, [r7]	@ luminosity, luminosity
 377              	@ src/main.c:82: 			tflag = 1;
  82:src/main.c    **** 	}
 378              		.loc 1 82 10 view .LVU77
 379 008a 0123     		movs	r3, #1	@ tmp345,
 380              	@ src/main.c:80: 			luminosity-=0.001;
  80:src/main.c    **** 		}
 381              		.loc 1 80 14 view .LVU78
 382 008c 9FED2B7A 		vldr.32	s14, .L62+20	@ tmp343,
 383              	@ src/main.c:82: 			tflag = 1;
  82:src/main.c    **** 	}
 384              		.loc 1 82 10 view .LVU79
 385 0090 2B60     		str	r3, [r5]	@ tmp345, tflag
  84:src/main.c    **** 		reset( pd );
 386              		.loc 1 84 2 is_stmt 1 view .LVU80
 387              	@ src/main.c:80: 			luminosity-=0.001;
  80:src/main.c    **** 		}
 388              		.loc 1 80 14 is_stmt 0 view .LVU81
 389 0092 77EEC77A 		vsub.f32	s15, s15, s14	@ _33, luminosity, tmp343
 390 0096 C7ED007A 		vstr.32	s15, [r7]	@ _33, luminosity
 391              	@ src/main.c:84: 	if ( pushed & kButtonB ) {
  84:src/main.c    **** 		reset( pd );
 392              		.loc 1 84 5 view .LVU82
 393 009a 002A     		cmp	r2, #0	@ _248
 394 009c 40F0E481 		bne	.L20	@
 395              	.L61:
 396 00a0 DFF8B0A0 		ldr	r10, .L62+44	@ tmp564,
 397              	.L23:
  90:src/main.c    **** 		currentStar = checkCurrentStar( temperature, luminosity );
 398              		.loc 1 90 3 is_stmt 1 view .LVU83
 399              	@ src/main.c:90: 		pd->system->removeMenuItem( presetItem );
  90:src/main.c    **** 		currentStar = checkCurrentStar( temperature, luminosity );
 400              		.loc 1 90 5 is_stmt 0 view .LVU84
 401 00a4 2368     		ldr	r3, [r4]	@ pd, pd
 402              	@ src/main.c:90: 		pd->system->removeMenuItem( presetItem );
  90:src/main.c    **** 		currentStar = checkCurrentStar( temperature, luminosity );
 403              		.loc 1 90 3 view .LVU85
ARM GAS  /tmp/ccR8f7ao.s 			page 13


 404 00a6 DFF8B090 		ldr	r9, .L62+48	@ tmp346,
 405              	@ src/main.c:90: 		pd->system->removeMenuItem( presetItem );
  90:src/main.c    **** 		currentStar = checkCurrentStar( temperature, luminosity );
 406              		.loc 1 90 13 view .LVU86
 407 00aa 1B68     		ldr	r3, [r3]	@ pd.24_36->system, pd.24_36->system
 408              	@ src/main.c:90: 		pd->system->removeMenuItem( presetItem );
  90:src/main.c    **** 		currentStar = checkCurrentStar( temperature, luminosity );
 409              		.loc 1 90 3 view .LVU87
 410 00ac D9F80000 		ldr	r0, [r9]	@, presetItem
 411 00b0 DB6D     		ldr	r3, [r3, #92]	@ _37->removeMenuItem, _37->removeMenuItem
 412 00b2 9847     		blx	r3		@ _37->removeMenuItem
 413              	.LVL16:
  91:src/main.c    **** 		if ( currentStar == -1 ) {
 414              		.loc 1 91 3 is_stmt 1 view .LVU88
 415              	@ src/main.c:91: 		currentStar = checkCurrentStar( temperature, luminosity );
  91:src/main.c    **** 		if ( currentStar == -1 ) {
 416              		.loc 1 91 17 is_stmt 0 view .LVU89
 417 00b4 D7ED000A 		vldr.32	s1, [r7]	@, luminosity
 418 00b8 96ED000A 		vldr.32	s0, [r6]	@, temperature
 419 00bc FFF7FEFF 		bl	checkCurrentStar		@
 420              	.LVL17:
 421              	@ src/main.c:97: 			presetItem = pd->system->addOptionsMenuItem( "Star", presetlabels, NUM_PRESETS,
  97:src/main.c    **** 			pd->system->setMenuItemValue( presetItem, currentStar );
 422              		.loc 1 97 19 view .LVU90
 423 00c0 2368     		ldr	r3, [r4]	@ pd.32_52, pd
 424              	@ src/main.c:91: 		currentStar = checkCurrentStar( temperature, luminosity );
  91:src/main.c    **** 		if ( currentStar == -1 ) {
 425              		.loc 1 91 15 discriminator 1 view .LVU91
 426 00c2 DFF89880 		ldr	r8, .L62+52	@ tmp357,
 427              	@ src/main.c:97: 			presetItem = pd->system->addOptionsMenuItem( "Star", presetlabels, NUM_PRESETS,
  97:src/main.c    **** 			pd->system->setMenuItemValue( presetItem, currentStar );
 428              		.loc 1 97 27 view .LVU92
 429 00c6 1A68     		ldr	r2, [r3]	@ pd.32_52->system, pd.32_52->system
 430              	@ src/main.c:91: 		currentStar = checkCurrentStar( temperature, luminosity );
  91:src/main.c    **** 		if ( currentStar == -1 ) {
 431              		.loc 1 91 15 discriminator 1 view .LVU93
 432 00c8 88F80000 		strb	r0, [r8]	@ tmp570, currentStar
  92:src/main.c    **** 			presetItem = pd->system->addOptionsMenuItem( "Star", presetlabels, NUM_PRESETS+1, selectPreset, 
 433              		.loc 1 92 3 is_stmt 1 view .LVU94
  97:src/main.c    **** 			pd->system->setMenuItemValue( presetItem, currentStar );
 434              		.loc 1 97 4 view .LVU95
 435              	@ src/main.c:97: 			presetItem = pd->system->addOptionsMenuItem( "Star", presetlabels, NUM_PRESETS,
  97:src/main.c    **** 			pd->system->setMenuItemValue( presetItem, currentStar );
 436              		.loc 1 97 17 is_stmt 0 view .LVU96
 437 00cc 1C49     		ldr	r1, .L62+24	@,
 438 00ce 0093     		str	r3, [sp]	@ pd.32_52,
 439 00d0 1C48     		ldr	r0, .L62+28	@,
 440 00d2 D2F854B0 		ldr	fp, [r2, #84]	@ _53->addOptionsMenuItem, _53->addOptionsMenuItem
 441 00d6 0A22     		movs	r2, #10	@,
 442 00d8 1B4B     		ldr	r3, .L62+32	@,
 443 00da D847     		blx	fp		@ _53->addOptionsMenuItem
 444              	.LVL18:
 445              	@ src/main.c:98: 			pd->system->setMenuItemValue( presetItem, currentStar );
  98:src/main.c    **** 		}
 446              		.loc 1 98 6 view .LVU97
 447 00dc 2368     		ldr	r3, [r4]	@ pd, pd
 448              	@ src/main.c:98: 			pd->system->setMenuItemValue( presetItem, currentStar );
ARM GAS  /tmp/ccR8f7ao.s 			page 14


  98:src/main.c    **** 		}
 449              		.loc 1 98 4 view .LVU98
 450 00de 98F80010 		ldrb	r1, [r8]	@ zero_extendqisi2	@, currentStar
 451              	@ src/main.c:98: 			pd->system->setMenuItemValue( presetItem, currentStar );
  98:src/main.c    **** 		}
 452              		.loc 1 98 14 view .LVU99
 453 00e2 1B68     		ldr	r3, [r3]	@ pd.34_56->system, pd.34_56->system
 454              	@ src/main.c:97: 			presetItem = pd->system->addOptionsMenuItem( "Star", presetlabels, NUM_PRESETS,
  97:src/main.c    **** 			pd->system->setMenuItemValue( presetItem, currentStar );
 455              		.loc 1 97 15 discriminator 1 view .LVU100
 456 00e4 C9F80000 		str	r0, [r9]	@ tmp571, presetItem
  98:src/main.c    **** 		}
 457              		.loc 1 98 4 is_stmt 1 view .LVU101
 458 00e8 5B6E     		ldr	r3, [r3, #100]	@ _57->setMenuItemValue, _57->setMenuItemValue
 459 00ea 9847     		blx	r3		@ _57->setMenuItemValue
 460              	.LVL19:
 100:src/main.c    **** 	}
 461              		.loc 1 100 3 view .LVU102
 462              	@ src/main.c:100: 		tflag = 0;
 100:src/main.c    **** 	}
 463              		.loc 1 100 9 is_stmt 0 view .LVU103
 464 00ec 0023     		movs	r3, #0	@ tmp373,
 465 00ee 2B60     		str	r3, [r5]	@ tmp373, tflag
 466 00f0 3EE0     		b	.L21		@
 467              	.LVL20:
 468              	.L52:
  57:src/main.c    **** 		if ( currentSelection == tempItem ) {
 469              		.loc 1 57 17 is_stmt 1 view .LVU104
 470              	@ src/main.c:57:                 crankchange = pd->system->getCrankChange();
  57:src/main.c    **** 		if ( currentSelection == tempItem ) {
 471              		.loc 1 57 33 is_stmt 0 view .LVU105
 472 00f2 2368     		ldr	r3, [r4]	@ pd, pd
 473              	@ src/main.c:58: 		if ( currentSelection == tempItem ) {
  58:src/main.c    **** 			temperature += crankchange;
 474              		.loc 1 58 25 view .LVU106
 475 00f4 DFF85880 		ldr	r8, .L62+40	@ tmp559,
 476              	@ src/main.c:57:                 crankchange = pd->system->getCrankChange();
  57:src/main.c    **** 		if ( currentSelection == tempItem ) {
 477              		.loc 1 57 41 view .LVU107
 478 00f8 1B68     		ldr	r3, [r3]	@ pretmp_249->system, pretmp_249->system
 479              	@ src/main.c:57:                 crankchange = pd->system->getCrankChange();
  57:src/main.c    **** 		if ( currentSelection == tempItem ) {
 480              		.loc 1 57 31 view .LVU108
 481 00fa 1B6B     		ldr	r3, [r3, #48]	@ pretmp_250->getCrankChange, pretmp_250->getCrankChange
 482 00fc 9847     		blx	r3		@ pretmp_250->getCrankChange
 483              	.LVL21:
  58:src/main.c    **** 			temperature += crankchange;
 484              		.loc 1 58 3 is_stmt 1 view .LVU109
 485              	@ src/main.c:58: 		if ( currentSelection == tempItem ) {
  58:src/main.c    **** 			temperature += crankchange;
 486              		.loc 1 58 6 is_stmt 0 view .LVU110
 487 00fe 98F80030 		ldrb	r3, [r8]	@ zero_extendqisi2	@ currentSelection, currentSelection
 488 0102 002B     		cmp	r3, #0	@ currentSelection
 489 0104 00F0F781 		beq	.L59	@
  62:src/main.c    **** 		}
 490              		.loc 1 62 4 is_stmt 1 view .LVU111
 491              	@ src/main.c:62: 			luminosity += crankchange / 1000;
ARM GAS  /tmp/ccR8f7ao.s 			page 15


  62:src/main.c    **** 		}
 492              		.loc 1 62 30 is_stmt 0 view .LVU112
 493 0108 9FED107A 		vldr.32	s14, .L62+36	@ tmp305,
 494              	@ src/main.c:62: 			luminosity += crankchange / 1000;
  62:src/main.c    **** 		}
 495              		.loc 1 62 15 view .LVU113
 496 010c 094F     		ldr	r7, .L62+12	@ tmp563,
 497              	@ src/main.c:62: 			luminosity += crankchange / 1000;
  62:src/main.c    **** 		}
 498              		.loc 1 62 30 view .LVU114
 499 010e C0EE077A 		vdiv.f32	s15, s0, s14	@ _20, crankchange, tmp305
 500 0112 074E     		ldr	r6, .L62+8	@ tmp561,
 501              	@ src/main.c:62: 			luminosity += crankchange / 1000;
  62:src/main.c    **** 		}
 502              		.loc 1 62 15 view .LVU115
 503 0114 97ED007A 		vldr.32	s14, [r7]	@ luminosity, luminosity
 504 0118 77EE877A 		vadd.f32	s15, s15, s14	@ _22, _20, luminosity
 505 011c C7ED007A 		vstr.32	s15, [r7]	@ _22, luminosity
 506              	.L13:
  64:src/main.c    ****         }
 507              		.loc 1 64 4 is_stmt 1 view .LVU116
 508              	@ src/main.c:64: 			tflag = 1;
  64:src/main.c    ****         }
 509              		.loc 1 64 10 is_stmt 0 view .LVU117
 510 0120 054D     		ldr	r5, .L62+16	@ tmp562,
 511 0122 0123     		movs	r3, #1	@ tmp310,
 512 0124 2B60     		str	r3, [r5]	@ tmp310, tflag
 513 0126 8EE7     		b	.L11		@
 514              	.L63:
 515              		.align	2
 516              	.L62:
 517 0128 00000000 		.word	pd
 518 012c 00000000 		.word	font
 519 0130 00000000 		.word	temperature
 520 0134 00000000 		.word	luminosity
 521 0138 00000000 		.word	tflag
 522 013c 6F12833A 		.word	981668463
 523 0140 00000000 		.word	presetlabels
 524 0144 00000000 		.word	.LC0
 525 0148 00000000 		.word	selectPreset
 526 014c 00007A44 		.word	1148846080
 527 0150 00000000 		.word	currentSelection
 528 0154 00000000 		.word	cursorposition
 529 0158 00000000 		.word	presetItem
 530 015c 00000000 		.word	currentStar
 531              	.LVL22:
 532              	.L17:
  84:src/main.c    **** 		reset( pd );
 533              		.loc 1 84 2 is_stmt 1 view .LVU118
 534              	@ src/main.c:84: 	if ( pushed & kButtonB ) {
  84:src/main.c    **** 		reset( pd );
 535              		.loc 1 84 5 is_stmt 0 view .LVU119
 536 0160 002A     		cmp	r2, #0	@ _248
 537 0162 40F0D381 		bne	.L43	@
 538 0166 DFF878A3 		ldr	r10, .L64+76	@ tmp564,
 539              	.L22:
  89:src/main.c    **** 		pd->system->removeMenuItem( presetItem );
ARM GAS  /tmp/ccR8f7ao.s 			page 16


 540              		.loc 1 89 2 is_stmt 1 view .LVU120
 541              	@ src/main.c:89: 	if ( tflag == 1 ) {
  89:src/main.c    **** 		pd->system->removeMenuItem( presetItem );
 542              		.loc 1 89 5 is_stmt 0 view .LVU121
 543 016a 2B68     		ldr	r3, [r5]	@ tflag, tflag
 544 016c 012B     		cmp	r3, #1	@ tflag,
 545 016e 99D0     		beq	.L23		@,
 546              	.L21:
 104:src/main.c    **** 		cursorposition = CURSORINIT;
 547              		.loc 1 104 2 is_stmt 1 view .LVU122
 548              	@ src/main.c:104: 	if ( pushed & kButtonUp ) {
 104:src/main.c    **** 		cursorposition = CURSORINIT;
 549              		.loc 1 104 14 is_stmt 0 view .LVU123
 550 0170 9DF80F30 		ldrb	r3, [sp, #15]	@ zero_extendqisi2	@ pushed.37_61, pushed
 551              	@ src/main.c:104: 	if ( pushed & kButtonUp ) {
 104:src/main.c    **** 		cursorposition = CURSORINIT;
 552              		.loc 1 104 5 view .LVU124
 553 0174 5A07     		lsls	r2, r3, #29	@, pushed.37_61,
 554 0176 05D5     		bpl	.L24		@,
 105:src/main.c    **** 		currentSelection = tempItem;
 555              		.loc 1 105 3 is_stmt 1 view .LVU125
 556              	@ src/main.c:105: 		cursorposition = CURSORINIT;
 105:src/main.c    **** 		currentSelection = tempItem;
 557              		.loc 1 105 18 is_stmt 0 view .LVU126
 558 0178 1E22     		movs	r2, #30	@ tmp393,
 559              	@ src/main.c:106: 		currentSelection = tempItem;
 106:src/main.c    **** 	}
 560              		.loc 1 106 20 view .LVU127
 561 017a 0021     		movs	r1, #0	@ tmp395,
 562              	@ src/main.c:105: 		cursorposition = CURSORINIT;
 105:src/main.c    **** 		currentSelection = tempItem;
 563              		.loc 1 105 18 view .LVU128
 564 017c CAF80020 		str	r2, [r10]	@ tmp393, cursorposition
 106:src/main.c    **** 	}
 565              		.loc 1 106 3 is_stmt 1 view .LVU129
 566              	@ src/main.c:106: 		currentSelection = tempItem;
 106:src/main.c    **** 	}
 567              		.loc 1 106 20 is_stmt 0 view .LVU130
 568 0180 C44A     		ldr	r2, .L64	@ tmp394,
 569 0182 1170     		strb	r1, [r2]	@ tmp395, currentSelection
 570              	.L24:
 108:src/main.c    **** 		cursorposition = CURSORINIT + CURSORDELTA;
 571              		.loc 1 108 2 is_stmt 1 view .LVU131
 572              	@ src/main.c:108: 	if ( pushed & kButtonDown ) {
 108:src/main.c    **** 		cursorposition = CURSORINIT + CURSORDELTA;
 573              		.loc 1 108 5 is_stmt 0 view .LVU132
 574 0184 1B07     		lsls	r3, r3, #28	@, pushed.37_61,
 575 0186 05D5     		bpl	.L25		@,
 109:src/main.c    **** 		currentSelection = lumItem;
 576              		.loc 1 109 3 is_stmt 1 view .LVU133
 577              	@ src/main.c:109: 		cursorposition = CURSORINIT + CURSORDELTA;
 109:src/main.c    **** 		currentSelection = lumItem;
 578              		.loc 1 109 18 is_stmt 0 view .LVU134
 579 0188 3723     		movs	r3, #55	@ tmp401,
 580              	@ src/main.c:110: 		currentSelection = lumItem;
 110:src/main.c    **** 	}
 581              		.loc 1 110 20 view .LVU135
ARM GAS  /tmp/ccR8f7ao.s 			page 17


 582 018a 0122     		movs	r2, #1	@ tmp403,
 583              	@ src/main.c:109: 		cursorposition = CURSORINIT + CURSORDELTA;
 109:src/main.c    **** 		currentSelection = lumItem;
 584              		.loc 1 109 18 view .LVU136
 585 018c CAF80030 		str	r3, [r10]	@ tmp401, cursorposition
 110:src/main.c    **** 	}
 586              		.loc 1 110 3 is_stmt 1 view .LVU137
 587              	@ src/main.c:110: 		currentSelection = lumItem;
 110:src/main.c    **** 	}
 588              		.loc 1 110 20 is_stmt 0 view .LVU138
 589 0190 C04B     		ldr	r3, .L64	@ tmp402,
 590 0192 1A70     		strb	r2, [r3]	@ tmp403, currentSelection
 591              	.L25:
 114:src/main.c    **** 		temperature = 2500;
 592              		.loc 1 114 2 is_stmt 1 view .LVU139
 593              	@ src/main.c:114: 	if ( temperature < 2500 ) {
 114:src/main.c    **** 		temperature = 2500;
 594              		.loc 1 114 19 is_stmt 0 view .LVU140
 595 0194 D6ED007A 		vldr.32	s15, [r6]	@ temperature.39_62, temperature
 596              	@ src/main.c:114: 	if ( temperature < 2500 ) {
 114:src/main.c    **** 		temperature = 2500;
 597              		.loc 1 114 5 view .LVU141
 598 0198 9FEDBF7A 		vldr.32	s14, .L64+4	@ tmp406,
 599 019c F4EEC77A 		vcmpe.f32	s15, s14	@ temperature.39_62, tmp406
 600 01a0 F1EE10FA 		vmrs	APSR_nzcv, FPSCR
 601 01a4 06D4     		bmi	.L56		@,
 117:src/main.c    **** 		temperature = 7200;
 602              		.loc 1 117 7 is_stmt 1 view .LVU142
 603              	@ src/main.c:117: 	else if ( temperature > 7200 ) {
 117:src/main.c    **** 		temperature = 7200;
 604              		.loc 1 117 10 is_stmt 0 view .LVU143
 605 01a6 9FEDBD7A 		vldr.32	s14, .L64+8	@ tmp409,
 606 01aa F4EEC77A 		vcmpe.f32	s15, s14	@ temperature.39_62, tmp409
 607 01ae F1EE10FA 		vmrs	APSR_nzcv, FPSCR
 608 01b2 01DD     		ble	.L28		@,
 609              	.L56:
 118:src/main.c    **** 	}
 610              		.loc 1 118 3 is_stmt 1 view .LVU144
 611              	@ src/main.c:118: 		temperature = 7200;
 118:src/main.c    **** 	}
 612              		.loc 1 118 15 is_stmt 0 view .LVU145
 613 01b4 86ED007A 		vstr.32	s14, [r6]	@ tmp409, temperature
 614              	.L28:
 120:src/main.c    **** 		luminosity = 0.0;
 615              		.loc 1 120 2 is_stmt 1 view .LVU146
 616              	@ src/main.c:120: 	if ( luminosity < 0.0 ) {
 120:src/main.c    **** 		luminosity = 0.0;
 617              		.loc 1 120 18 is_stmt 0 view .LVU147
 618 01b8 D7ED007A 		vldr.32	s15, [r7]	@ luminosity.41_63, luminosity
 619              	@ src/main.c:120: 	if ( luminosity < 0.0 ) {
 120:src/main.c    **** 		luminosity = 0.0;
 620              		.loc 1 120 5 view .LVU148
 621 01bc 0023     		movs	r3, #0	@ tmp413,
 622 01be F5EEC07A 		vcmpe.f32	s15, #0	@ luminosity.41_63
 623 01c2 F1EE10FA 		vmrs	APSR_nzcv, FPSCR
 624 01c6 00F19F81 		bmi	.L60		@,
 123:src/main.c    **** 		luminosity = 9.0;
ARM GAS  /tmp/ccR8f7ao.s 			page 18


 625              		.loc 1 123 7 is_stmt 1 view .LVU149
 626              	@ src/main.c:123: 	else if ( luminosity > 9.0 ) {
 123:src/main.c    **** 		luminosity = 9.0;
 627              		.loc 1 123 10 is_stmt 0 view .LVU150
 628 01ca B2EE027A 		vmov.f32	s14, #9.0e+0	@ tmp416,
 629 01ce F4EEC77A 		vcmpe.f32	s15, s14	@ luminosity.41_63, tmp416
 630 01d2 F1EE10FA 		vmrs	APSR_nzcv, FPSCR
 124:src/main.c    **** 	}
 631              		.loc 1 124 3 is_stmt 1 view .LVU151
 632              	@ src/main.c:124: 		luminosity = 9.0;
 124:src/main.c    **** 	}
 633              		.loc 1 124 14 is_stmt 0 view .LVU152
 634 01d6 C8BF     		it	gt
 635 01d8 87ED007A 		vstrgt.32	s14, [r7]	@ tmp416, luminosity
 636              	.L32:
 128:src/main.c    **** 	pd->graphics->drawText( stringnum, strlen( stringnum ), kASCIIEncoding, 3, 3 );
 637              		.loc 1 128 2 is_stmt 1 view .LVU153
 638              	@ src/main.c:128: 	pd->system->formatString( &stringnum, "Habitable Zone Calculator, v%1.1f", VERSI
 128:src/main.c    **** 	pd->graphics->drawText( stringnum, strlen( stringnum ), kASCIIEncoding, 3, 3 );
 639              		.loc 1 128 4 is_stmt 0 view .LVU154
 640 01dc 2368     		ldr	r3, [r4]	@ pd, pd
 641              	@ src/main.c:128: 	pd->system->formatString( &stringnum, "Habitable Zone Calculator, v%1.1f", VERSI
 128:src/main.c    **** 	pd->graphics->drawText( stringnum, strlen( stringnum ), kASCIIEncoding, 3, 3 );
 642              		.loc 1 128 2 view .LVU155
 643 01de 0022     		movs	r2, #0	@,
 644 01e0 AF4D     		ldr	r5, .L64+12	@ tmp421,
 645              	@ src/main.c:129: 	pd->graphics->drawText( stringnum, strlen( stringnum ), kASCIIEncoding, 3, 3 );
 129:src/main.c    **** 	pd->graphics->drawText( "__________________________________________________", 50, kASCIIEncoding, 
 646              		.loc 1 129 2 discriminator 1 view .LVU156
 647 01e2 4FF00309 		mov	r9, #3	@ tmp431,
 648              	@ src/main.c:128: 	pd->system->formatString( &stringnum, "Habitable Zone Calculator, v%1.1f", VERSI
 128:src/main.c    **** 	pd->graphics->drawText( stringnum, strlen( stringnum ), kASCIIEncoding, 3, 3 );
 649              		.loc 1 128 12 view .LVU157
 650 01e6 1B68     		ldr	r3, [r3]	@ pd.43_64->system, pd.43_64->system
 651              	@ src/main.c:128: 	pd->system->formatString( &stringnum, "Habitable Zone Calculator, v%1.1f", VERSI
 128:src/main.c    **** 	pd->graphics->drawText( stringnum, strlen( stringnum ), kASCIIEncoding, 3, 3 );
 652              		.loc 1 128 2 view .LVU158
 653 01e8 AE49     		ldr	r1, .L64+16	@,
 654 01ea 2846     		mov	r0, r5	@, tmp421
 655 01ec D3F80480 		ldr	r8, [r3, #4]	@ _65->formatString, _65->formatString
 656 01f0 AD4B     		ldr	r3, .L64+20	@,
 657 01f2 C047     		blx	r8		@ _65->formatString
 658              	.LVL23:
 129:src/main.c    **** 	pd->graphics->drawText( "__________________________________________________", 50, kASCIIEncoding, 
 659              		.loc 1 129 2 is_stmt 1 view .LVU159
 660 01f4 D5F80080 		ldr	r8, [r5]	@ stringnum.45_70, stringnum
 661 01f8 4046     		mov	r0, r8	@, stringnum.45_70
 662 01fa FFF7FEFF 		bl	strlen		@
 663              	.LVL24:
 664              	@ src/main.c:129: 	pd->graphics->drawText( stringnum, strlen( stringnum ), kASCIIEncoding, 3, 3 );
 129:src/main.c    **** 	pd->graphics->drawText( "__________________________________________________", 50, kASCIIEncoding, 
 665              		.loc 1 129 4 is_stmt 0 view .LVU160
 666 01fe 2368     		ldr	r3, [r4]	@ pd, pd
 667              	@ src/main.c:129: 	pd->graphics->drawText( stringnum, strlen( stringnum ), kASCIIEncoding, 3, 3 );
 129:src/main.c    **** 	pd->graphics->drawText( "__________________________________________________", 50, kASCIIEncoding, 
 668              		.loc 1 129 2 view .LVU161
 669 0200 0146     		mov	r1, r0	@ tmp572,
ARM GAS  /tmp/ccR8f7ao.s 			page 19


 670              	@ src/main.c:129: 	pd->graphics->drawText( stringnum, strlen( stringnum ), kASCIIEncoding, 3, 3 );
 129:src/main.c    **** 	pd->graphics->drawText( "__________________________________________________", 50, kASCIIEncoding, 
 671              		.loc 1 129 2 discriminator 1 view .LVU162
 672 0202 0022     		movs	r2, #0	@,
 673              	@ src/main.c:129: 	pd->graphics->drawText( stringnum, strlen( stringnum ), kASCIIEncoding, 3, 3 );
 129:src/main.c    **** 	pd->graphics->drawText( "__________________________________________________", 50, kASCIIEncoding, 
 674              		.loc 1 129 14 view .LVU163
 675 0204 9B68     		ldr	r3, [r3, #8]	@ pd.44_67->graphics, pd.44_67->graphics
 676              	@ src/main.c:129: 	pd->graphics->drawText( stringnum, strlen( stringnum ), kASCIIEncoding, 3, 3 );
 129:src/main.c    **** 	pd->graphics->drawText( "__________________________________________________", 50, kASCIIEncoding, 
 677              		.loc 1 129 2 discriminator 1 view .LVU164
 678 0206 4046     		mov	r0, r8	@, stringnum.45_70
 679 0208 CDF80090 		str	r9, [sp]	@ tmp431,
 680 020c D3F85880 		ldr	r8, [r3, #88]	@ _68->drawText, _68->drawText
 681 0210 4B46     		mov	r3, r9	@, tmp431
 682 0212 C047     		blx	r8		@ _68->drawText
 683              	.LVL25:
 130:src/main.c    **** 
 684              		.loc 1 130 2 is_stmt 1 view .LVU165
 685              	@ src/main.c:130: 	pd->graphics->drawText( "__________________________________________________", 50
 130:src/main.c    **** 
 686              		.loc 1 130 4 is_stmt 0 view .LVU166
 687 0214 2368     		ldr	r3, [r4]	@ pd, pd
 688              	@ src/main.c:130: 	pd->graphics->drawText( "__________________________________________________", 50
 130:src/main.c    **** 
 689              		.loc 1 130 2 view .LVU167
 690 0216 0822     		movs	r2, #8	@ tmp437,
 691 0218 3221     		movs	r1, #50	@,
 692              	@ src/main.c:130: 	pd->graphics->drawText( "__________________________________________________", 50
 130:src/main.c    **** 
 693              		.loc 1 130 14 view .LVU168
 694 021a 9B68     		ldr	r3, [r3, #8]	@ pd.47_72->graphics, pd.47_72->graphics
 695              	@ src/main.c:130: 	pd->graphics->drawText( "__________________________________________________", 50
 130:src/main.c    **** 
 696              		.loc 1 130 2 view .LVU169
 697 021c 0092     		str	r2, [sp]	@ tmp437,
 698 021e D3F85880 		ldr	r8, [r3, #88]	@ _73->drawText, _73->drawText
 699 0222 0023     		movs	r3, #0	@,
 700 0224 A148     		ldr	r0, .L64+24	@,
 701 0226 1A46     		mov	r2, r3	@,
 702 0228 C047     		blx	r8		@ _73->drawText
 703              	.LVL26:
 133:src/main.c    **** 	pd->graphics->drawText( stringnum, strlen( stringnum ), kASCIIEncoding, LPADDING, CURSORINIT );
 704              		.loc 1 133 2 is_stmt 1 view .LVU170
 705 022a 3068     		ldr	r0, [r6]	@ float	@, temperature
 706 022c FFF7FEFF 		bl	__aeabi_f2d		@
 707              	.LVL27:
 708 0230 0B46     		mov	r3, r1	@,
 709              	@ src/main.c:133: 	pd->system->formatString( &stringnum, "Stellar Temperature:  %4.0f Kelvin", temp
 133:src/main.c    **** 	pd->graphics->drawText( stringnum, strlen( stringnum ), kASCIIEncoding, LPADDING, CURSORINIT );
 710              		.loc 1 133 4 is_stmt 0 view .LVU171
 711 0232 2168     		ldr	r1, [r4]	@ pd, pd
 712              	@ src/main.c:133: 	pd->system->formatString( &stringnum, "Stellar Temperature:  %4.0f Kelvin", temp
 133:src/main.c    **** 	pd->graphics->drawText( stringnum, strlen( stringnum ), kASCIIEncoding, LPADDING, CURSORINIT );
 713              		.loc 1 133 2 view .LVU172
 714 0234 0246     		mov	r2, r0	@ tmp573,
 715 0236 2846     		mov	r0, r5	@, tmp421
ARM GAS  /tmp/ccR8f7ao.s 			page 20


 716              	@ src/main.c:133: 	pd->system->formatString( &stringnum, "Stellar Temperature:  %4.0f Kelvin", temp
 133:src/main.c    **** 	pd->graphics->drawText( stringnum, strlen( stringnum ), kASCIIEncoding, LPADDING, CURSORINIT );
 717              		.loc 1 133 12 view .LVU173
 718 0238 0968     		ldr	r1, [r1]	@ pd.48_75->system, pd.48_75->system
 719              	@ src/main.c:133: 	pd->system->formatString( &stringnum, "Stellar Temperature:  %4.0f Kelvin", temp
 133:src/main.c    **** 	pd->graphics->drawText( stringnum, strlen( stringnum ), kASCIIEncoding, LPADDING, CURSORINIT );
 720              		.loc 1 133 2 view .LVU174
 721 023a D1F80480 		ldr	r8, [r1, #4]	@ _76->formatString, _76->formatString
 722 023e 9C49     		ldr	r1, .L64+28	@,
 723 0240 C047     		blx	r8		@ _76->formatString
 724              	.LVL28:
 134:src/main.c    **** 	pd->system->formatString( &stringnum, "Luminosity:           %1.3f solar units", luminosity );
 725              		.loc 1 134 2 is_stmt 1 view .LVU175
 726 0242 D5F80080 		ldr	r8, [r5]	@ stringnum.51_83, stringnum
 727 0246 4046     		mov	r0, r8	@, stringnum.51_83
 728 0248 FFF7FEFF 		bl	strlen		@
 729              	.LVL29:
 730              	@ src/main.c:134: 	pd->graphics->drawText( stringnum, strlen( stringnum ), kASCIIEncoding, LPADDING
 134:src/main.c    **** 	pd->system->formatString( &stringnum, "Luminosity:           %1.3f solar units", luminosity );
 731              		.loc 1 134 4 is_stmt 0 view .LVU176
 732 024c 2368     		ldr	r3, [r4]	@ pd, pd
 733              	@ src/main.c:134: 	pd->graphics->drawText( stringnum, strlen( stringnum ), kASCIIEncoding, LPADDING
 134:src/main.c    **** 	pd->system->formatString( &stringnum, "Luminosity:           %1.3f solar units", luminosity );
 734              		.loc 1 134 2 view .LVU177
 735 024e 0146     		mov	r1, r0	@ tmp574,
 736              	@ src/main.c:134: 	pd->graphics->drawText( stringnum, strlen( stringnum ), kASCIIEncoding, LPADDING
 134:src/main.c    **** 	pd->system->formatString( &stringnum, "Luminosity:           %1.3f solar units", luminosity );
 737              		.loc 1 134 2 discriminator 1 view .LVU178
 738 0250 4046     		mov	r0, r8	@, stringnum.51_83
 739              	@ src/main.c:134: 	pd->graphics->drawText( stringnum, strlen( stringnum ), kASCIIEncoding, LPADDING
 134:src/main.c    **** 	pd->system->formatString( &stringnum, "Luminosity:           %1.3f solar units", luminosity );
 740              		.loc 1 134 14 view .LVU179
 741 0252 9B68     		ldr	r3, [r3, #8]	@ pd.50_80->graphics, pd.50_80->graphics
 742              	@ src/main.c:134: 	pd->graphics->drawText( stringnum, strlen( stringnum ), kASCIIEncoding, LPADDING
 134:src/main.c    **** 	pd->system->formatString( &stringnum, "Luminosity:           %1.3f solar units", luminosity );
 743              		.loc 1 134 2 discriminator 1 view .LVU180
 744 0254 4FF01E08 		mov	r8, #30	@ tmp452,
 745 0258 0022     		movs	r2, #0	@,
 746 025a CDF80080 		str	r8, [sp]	@ tmp452,
 747 025e D3F858B0 		ldr	fp, [r3, #88]	@ _81->drawText, _81->drawText
 748 0262 4346     		mov	r3, r8	@, tmp452
 749 0264 D847     		blx	fp		@ _81->drawText
 750              	.LVL30:
 135:src/main.c    **** 	pd->graphics->drawText( stringnum, strlen( stringnum ), kASCIIEncoding, LPADDING, CURSORINIT + CUR
 751              		.loc 1 135 2 is_stmt 1 view .LVU181
 752 0266 3868     		ldr	r0, [r7]	@ float	@, luminosity
 753 0268 FFF7FEFF 		bl	__aeabi_f2d		@
 754              	.LVL31:
 755 026c 0B46     		mov	r3, r1	@,
 756              	@ src/main.c:135: 	pd->system->formatString( &stringnum, "Luminosity:           %1.3f solar units",
 135:src/main.c    **** 	pd->graphics->drawText( stringnum, strlen( stringnum ), kASCIIEncoding, LPADDING, CURSORINIT + CUR
 757              		.loc 1 135 4 is_stmt 0 view .LVU182
 758 026e 2168     		ldr	r1, [r4]	@ pd, pd
 759              	@ src/main.c:135: 	pd->system->formatString( &stringnum, "Luminosity:           %1.3f solar units",
 135:src/main.c    **** 	pd->graphics->drawText( stringnum, strlen( stringnum ), kASCIIEncoding, LPADDING, CURSORINIT + CUR
 760              		.loc 1 135 2 view .LVU183
 761 0270 0246     		mov	r2, r0	@ tmp575,
ARM GAS  /tmp/ccR8f7ao.s 			page 21


 762 0272 2846     		mov	r0, r5	@, tmp421
 763              	@ src/main.c:135: 	pd->system->formatString( &stringnum, "Luminosity:           %1.3f solar units",
 135:src/main.c    **** 	pd->graphics->drawText( stringnum, strlen( stringnum ), kASCIIEncoding, LPADDING, CURSORINIT + CUR
 764              		.loc 1 135 12 view .LVU184
 765 0274 0968     		ldr	r1, [r1]	@ pd.53_85->system, pd.53_85->system
 766              	@ src/main.c:135: 	pd->system->formatString( &stringnum, "Luminosity:           %1.3f solar units",
 135:src/main.c    **** 	pd->graphics->drawText( stringnum, strlen( stringnum ), kASCIIEncoding, LPADDING, CURSORINIT + CUR
 767              		.loc 1 135 2 view .LVU185
 768 0276 D1F804B0 		ldr	fp, [r1, #4]	@ _86->formatString, _86->formatString
 769 027a 8E49     		ldr	r1, .L64+32	@,
 770 027c D847     		blx	fp		@ _86->formatString
 771              	.LVL32:
 136:src/main.c    **** 	pd->graphics->drawText( ">", 1, kASCIIEncoding, LPADDING - 10, cursorposition );
 772              		.loc 1 136 2 is_stmt 1 view .LVU186
 773 027e D5F800B0 		ldr	fp, [r5]	@ stringnum.56_93, stringnum
 774 0282 5846     		mov	r0, fp	@, stringnum.56_93
 775 0284 FFF7FEFF 		bl	strlen		@
 776              	.LVL33:
 777              	@ src/main.c:136: 	pd->graphics->drawText( stringnum, strlen( stringnum ), kASCIIEncoding, LPADDING
 136:src/main.c    **** 	pd->graphics->drawText( ">", 1, kASCIIEncoding, LPADDING - 10, cursorposition );
 778              		.loc 1 136 4 is_stmt 0 view .LVU187
 779 0288 2368     		ldr	r3, [r4]	@ pd, pd
 780              	@ src/main.c:136: 	pd->graphics->drawText( stringnum, strlen( stringnum ), kASCIIEncoding, LPADDING
 136:src/main.c    **** 	pd->graphics->drawText( ">", 1, kASCIIEncoding, LPADDING - 10, cursorposition );
 781              		.loc 1 136 2 discriminator 1 view .LVU188
 782 028a 3722     		movs	r2, #55	@ tmp467,
 783              	@ src/main.c:136: 	pd->graphics->drawText( stringnum, strlen( stringnum ), kASCIIEncoding, LPADDING
 136:src/main.c    **** 	pd->graphics->drawText( ">", 1, kASCIIEncoding, LPADDING - 10, cursorposition );
 784              		.loc 1 136 2 view .LVU189
 785 028c 0146     		mov	r1, r0	@ tmp576,
 786              	@ src/main.c:136: 	pd->graphics->drawText( stringnum, strlen( stringnum ), kASCIIEncoding, LPADDING
 136:src/main.c    **** 	pd->graphics->drawText( ">", 1, kASCIIEncoding, LPADDING - 10, cursorposition );
 787              		.loc 1 136 14 view .LVU190
 788 028e 9B68     		ldr	r3, [r3, #8]	@ pd.55_90->graphics, pd.55_90->graphics
 789              	@ src/main.c:136: 	pd->graphics->drawText( stringnum, strlen( stringnum ), kASCIIEncoding, LPADDING
 136:src/main.c    **** 	pd->graphics->drawText( ">", 1, kASCIIEncoding, LPADDING - 10, cursorposition );
 790              		.loc 1 136 2 discriminator 1 view .LVU191
 791 0290 5846     		mov	r0, fp	@, stringnum.56_93
 792 0292 0092     		str	r2, [sp]	@ tmp467,
 793 0294 0022     		movs	r2, #0	@,
 794 0296 D3F858B0 		ldr	fp, [r3, #88]	@ _91->drawText, _91->drawText
 795 029a 4346     		mov	r3, r8	@, tmp452
 796 029c D847     		blx	fp		@ _91->drawText
 797              	.LVL34:
 137:src/main.c    **** 	pd->graphics->drawText( "__________________________________________________", 50, kASCIIEncoding, 
 798              		.loc 1 137 2 is_stmt 1 view .LVU192
 799              	@ src/main.c:137: 	pd->graphics->drawText( ">", 1, kASCIIEncoding, LPADDING - 10, cursorposition );
 137:src/main.c    **** 	pd->graphics->drawText( "__________________________________________________", 50, kASCIIEncoding, 
 800              		.loc 1 137 4 is_stmt 0 view .LVU193
 801 029e 2368     		ldr	r3, [r4]	@ pd, pd
 802              	@ src/main.c:137: 	pd->graphics->drawText( ">", 1, kASCIIEncoding, LPADDING - 10, cursorposition );
 137:src/main.c    **** 	pd->graphics->drawText( "__________________________________________________", 50, kASCIIEncoding, 
 803              		.loc 1 137 2 view .LVU194
 804 02a0 DAF80020 		ldr	r2, [r10]	@ cursorposition, cursorposition
 805 02a4 0121     		movs	r1, #1	@,
 806              	@ src/main.c:137: 	pd->graphics->drawText( ">", 1, kASCIIEncoding, LPADDING - 10, cursorposition );
 137:src/main.c    **** 	pd->graphics->drawText( "__________________________________________________", 50, kASCIIEncoding, 
ARM GAS  /tmp/ccR8f7ao.s 			page 22


 807              		.loc 1 137 14 view .LVU195
 808 02a6 9B68     		ldr	r3, [r3, #8]	@ pd.58_95->graphics, pd.58_95->graphics
 809              	@ src/main.c:137: 	pd->graphics->drawText( ">", 1, kASCIIEncoding, LPADDING - 10, cursorposition );
 137:src/main.c    **** 	pd->graphics->drawText( "__________________________________________________", 50, kASCIIEncoding, 
 810              		.loc 1 137 2 view .LVU196
 811 02a8 8348     		ldr	r0, .L64+36	@,
 812 02aa 0092     		str	r2, [sp]	@ cursorposition,
 813 02ac 0022     		movs	r2, #0	@,
 814 02ae D3F858A0 		ldr	r10, [r3, #88]	@ _96->drawText, _96->drawText
 815 02b2 1423     		movs	r3, #20	@,
 816 02b4 D047     		blx	r10		@ _96->drawText
 817              	.LVL35:
 138:src/main.c    **** 
 818              		.loc 1 138 2 is_stmt 1 view .LVU197
 819              	@ src/main.c:138: 	pd->graphics->drawText( "__________________________________________________", 50
 138:src/main.c    **** 
 820              		.loc 1 138 4 is_stmt 0 view .LVU198
 821 02b6 2368     		ldr	r3, [r4]	@ pd, pd
 822              	@ src/main.c:138: 	pd->graphics->drawText( "__________________________________________________", 50
 138:src/main.c    **** 
 823              		.loc 1 138 2 view .LVU199
 824 02b8 4022     		movs	r2, #64	@ tmp480,
 825 02ba 3221     		movs	r1, #50	@,
 826              	@ src/main.c:138: 	pd->graphics->drawText( "__________________________________________________", 50
 138:src/main.c    **** 
 827              		.loc 1 138 14 view .LVU200
 828 02bc 9B68     		ldr	r3, [r3, #8]	@ pd.60_99->graphics, pd.60_99->graphics
 829              	@ src/main.c:138: 	pd->graphics->drawText( "__________________________________________________", 50
 138:src/main.c    **** 
 830              		.loc 1 138 2 view .LVU201
 831 02be 0092     		str	r2, [sp]	@ tmp480,
 832 02c0 D3F858A0 		ldr	r10, [r3, #88]	@ _100->drawText, _100->drawText
 833 02c4 0023     		movs	r3, #0	@,
 834 02c6 7948     		ldr	r0, .L64+24	@,
 835 02c8 1A46     		mov	r2, r3	@,
 836 02ca D047     		blx	r10		@ _100->drawText
 837              	.LVL36:
 141:src/main.c    **** 
 838              		.loc 1 141 2 is_stmt 1 view .LVU202
 839              	@ src/main.c:141: 	pd->graphics->drawText( "Conservative Limits", 20, kASCIIEncoding, LPADDING, CUR
 141:src/main.c    **** 
 840              		.loc 1 141 4 is_stmt 0 view .LVU203
 841 02cc 2368     		ldr	r3, [r4]	@ pd, pd
 842              	@ src/main.c:141: 	pd->graphics->drawText( "Conservative Limits", 20, kASCIIEncoding, LPADDING, CUR
 141:src/main.c    **** 
 843              		.loc 1 141 2 view .LVU204
 844 02ce 5922     		movs	r2, #89	@ tmp486,
 845 02d0 1421     		movs	r1, #20	@,
 846              	@ src/main.c:141: 	pd->graphics->drawText( "Conservative Limits", 20, kASCIIEncoding, LPADDING, CUR
 141:src/main.c    **** 
 847              		.loc 1 141 14 view .LVU205
 848 02d2 9B68     		ldr	r3, [r3, #8]	@ pd.61_102->graphics, pd.61_102->graphics
 849              	@ src/main.c:141: 	pd->graphics->drawText( "Conservative Limits", 20, kASCIIEncoding, LPADDING, CUR
 141:src/main.c    **** 
 850              		.loc 1 141 2 view .LVU206
 851 02d4 7948     		ldr	r0, .L64+40	@,
 852 02d6 0092     		str	r2, [sp]	@ tmp486,
ARM GAS  /tmp/ccR8f7ao.s 			page 23


 853 02d8 0022     		movs	r2, #0	@,
 854 02da D3F858A0 		ldr	r10, [r3, #88]	@ _103->drawText, _103->drawText
 855 02de 4346     		mov	r3, r8	@, tmp452
 856 02e0 D047     		blx	r10		@ _103->drawText
 857              	.LVL37:
 143:src/main.c    **** 	pd->graphics->drawText( stringnum, strlen( stringnum ), kASCIIEncoding, LPADDING + 30, CURSORINIT 
 858              		.loc 1 143 2 is_stmt 1 view .LVU207
 859              	@ src/main.c:143: 	pd->system->formatString( &stringnum, "Inner HZ - Runaway Greenhouse:  %2.2f AU"
 143:src/main.c    **** 	pd->graphics->drawText( stringnum, strlen( stringnum ), kASCIIEncoding, LPADDING + 30, CURSORINIT 
 860              		.loc 1 143 4 is_stmt 0 view .LVU208
 861 02e2 2368     		ldr	r3, [r4]	@ pd, pd
 862              	@ src/main.c:143: 	pd->system->formatString( &stringnum, "Inner HZ - Runaway Greenhouse:  %2.2f AU"
 143:src/main.c    **** 	pd->graphics->drawText( stringnum, strlen( stringnum ), kASCIIEncoding, LPADDING + 30, CURSORINIT 
 863              		.loc 1 143 84 view .LVU209
 864 02e4 97ED008A 		vldr.32	s16, [r7]	@ luminosity.63_108, luminosity
 865 02e8 0120     		movs	r0, #1	@,
 866              	@ src/main.c:143: 	pd->system->formatString( &stringnum, "Inner HZ - Runaway Greenhouse:  %2.2f AU"
 143:src/main.c    **** 	pd->graphics->drawText( stringnum, strlen( stringnum ), kASCIIEncoding, LPADDING + 30, CURSORINIT 
 867              		.loc 1 143 12 view .LVU210
 868 02ea 1B68     		ldr	r3, [r3]	@ pd.62_105->system, pd.62_105->system
 869              	@ src/main.c:143: 	pd->system->formatString( &stringnum, "Inner HZ - Runaway Greenhouse:  %2.2f AU"
 143:src/main.c    **** 	pd->graphics->drawText( stringnum, strlen( stringnum ), kASCIIEncoding, LPADDING + 30, CURSORINIT 
 870              		.loc 1 143 84 view .LVU211
 871 02ec 96ED000A 		vldr.32	s0, [r6]	@, temperature
 872              	@ src/main.c:143: 	pd->system->formatString( &stringnum, "Inner HZ - Runaway Greenhouse:  %2.2f AU"
 143:src/main.c    **** 	pd->graphics->drawText( stringnum, strlen( stringnum ), kASCIIEncoding, LPADDING + 30, CURSORINIT 
 873              		.loc 1 143 12 view .LVU212
 874 02f0 D3F804A0 		ldr	r10, [r3, #4]	@ _107, _106->formatString
 875              	@ src/main.c:143: 	pd->system->formatString( &stringnum, "Inner HZ - Runaway Greenhouse:  %2.2f AU"
 143:src/main.c    **** 	pd->graphics->drawText( stringnum, strlen( stringnum ), kASCIIEncoding, LPADDING + 30, CURSORINIT 
 876              		.loc 1 143 84 view .LVU213
 877 02f4 FFF7FEFF 		bl	getBoundary		@
 878              	.LVL38:
 879 02f8 F0EE400A 		vmov.f32	s1, s0	@ tmp577,
 880              	@ src/main.c:143: 	pd->system->formatString( &stringnum, "Inner HZ - Runaway Greenhouse:  %2.2f AU"
 143:src/main.c    **** 	pd->graphics->drawText( stringnum, strlen( stringnum ), kASCIIEncoding, LPADDING + 30, CURSORINIT 
 881              		.loc 1 143 84 discriminator 1 view .LVU214
 882 02fc B0EE480A 		vmov.f32	s0, s16	@, luminosity.63_108
 883 0300 FFF7FEFF 		bl	distance		@
 884              	.LVL39:
 885 0304 10EE100A 		vmov	r0, s0	@ tmp578,
 886              	@ src/main.c:143: 	pd->system->formatString( &stringnum, "Inner HZ - Runaway Greenhouse:  %2.2f AU"
 143:src/main.c    **** 	pd->graphics->drawText( stringnum, strlen( stringnum ), kASCIIEncoding, LPADDING + 30, CURSORINIT 
 887              		.loc 1 143 2 discriminator 2 view .LVU215
 888 0308 FFF7FEFF 		bl	__aeabi_f2d		@
 889              	.LVL40:
 890 030c 0246     		mov	r2, r0	@ tmp579,
 891 030e 0B46     		mov	r3, r1	@,
 892 0310 2846     		mov	r0, r5	@, tmp421
 893 0312 6B49     		ldr	r1, .L64+44	@,
 894 0314 D047     		blx	r10		@ _107
 895              	.LVL41:
 144:src/main.c    **** 
 896              		.loc 1 144 2 is_stmt 1 view .LVU216
 897 0316 D5F800A0 		ldr	r10, [r5]	@ stringnum.66_116, stringnum
 898 031a 5046     		mov	r0, r10	@, stringnum.66_116
 899 031c FFF7FEFF 		bl	strlen		@
ARM GAS  /tmp/ccR8f7ao.s 			page 24


 900              	.LVL42:
 901              	@ src/main.c:144: 	pd->graphics->drawText( stringnum, strlen( stringnum ), kASCIIEncoding, LPADDING
 144:src/main.c    **** 
 902              		.loc 1 144 4 is_stmt 0 view .LVU217
 903 0320 2368     		ldr	r3, [r4]	@ pd, pd
 904              	@ src/main.c:144: 	pd->graphics->drawText( stringnum, strlen( stringnum ), kASCIIEncoding, LPADDING
 144:src/main.c    **** 
 905              		.loc 1 144 2 discriminator 1 view .LVU218
 906 0322 7222     		movs	r2, #114	@ tmp502,
 907              	@ src/main.c:144: 	pd->graphics->drawText( stringnum, strlen( stringnum ), kASCIIEncoding, LPADDING
 144:src/main.c    **** 
 908              		.loc 1 144 2 view .LVU219
 909 0324 0146     		mov	r1, r0	@ tmp580,
 910              	@ src/main.c:144: 	pd->graphics->drawText( stringnum, strlen( stringnum ), kASCIIEncoding, LPADDING
 144:src/main.c    **** 
 911              		.loc 1 144 14 view .LVU220
 912 0326 9B68     		ldr	r3, [r3, #8]	@ pd.65_113->graphics, pd.65_113->graphics
 913              	@ src/main.c:144: 	pd->graphics->drawText( stringnum, strlen( stringnum ), kASCIIEncoding, LPADDING
 144:src/main.c    **** 
 914              		.loc 1 144 2 discriminator 1 view .LVU221
 915 0328 5046     		mov	r0, r10	@, stringnum.66_116
 916 032a 0092     		str	r2, [sp]	@ tmp502,
 917 032c 0022     		movs	r2, #0	@,
 918 032e D3F858A0 		ldr	r10, [r3, #88]	@ _114->drawText, _114->drawText
 919 0332 3C23     		movs	r3, #60	@,
 920 0334 D047     		blx	r10		@ _114->drawText
 921              	.LVL43:
 146:src/main.c    **** 	pd->graphics->drawText( stringnum, strlen( stringnum ), kASCIIEncoding, LPADDING + 30, CURSORINIT 
 922              		.loc 1 146 2 is_stmt 1 view .LVU222
 923              	@ src/main.c:146: 	pd->system->formatString( &stringnum, "Outer HZ - Maximum Greenhouse:  %2.2f AU"
 146:src/main.c    **** 	pd->graphics->drawText( stringnum, strlen( stringnum ), kASCIIEncoding, LPADDING + 30, CURSORINIT 
 924              		.loc 1 146 4 is_stmt 0 view .LVU223
 925 0336 2368     		ldr	r3, [r4]	@ pd, pd
 926              	@ src/main.c:146: 	pd->system->formatString( &stringnum, "Outer HZ - Maximum Greenhouse:  %2.2f AU"
 146:src/main.c    **** 	pd->graphics->drawText( stringnum, strlen( stringnum ), kASCIIEncoding, LPADDING + 30, CURSORINIT 
 927              		.loc 1 146 84 view .LVU224
 928 0338 97ED008A 		vldr.32	s16, [r7]	@ luminosity.69_121, luminosity
 929 033c 0220     		movs	r0, #2	@,
 930              	@ src/main.c:146: 	pd->system->formatString( &stringnum, "Outer HZ - Maximum Greenhouse:  %2.2f AU"
 146:src/main.c    **** 	pd->graphics->drawText( stringnum, strlen( stringnum ), kASCIIEncoding, LPADDING + 30, CURSORINIT 
 931              		.loc 1 146 12 view .LVU225
 932 033e 1B68     		ldr	r3, [r3]	@ pd.68_118->system, pd.68_118->system
 933              	@ src/main.c:146: 	pd->system->formatString( &stringnum, "Outer HZ - Maximum Greenhouse:  %2.2f AU"
 146:src/main.c    **** 	pd->graphics->drawText( stringnum, strlen( stringnum ), kASCIIEncoding, LPADDING + 30, CURSORINIT 
 934              		.loc 1 146 84 view .LVU226
 935 0340 96ED000A 		vldr.32	s0, [r6]	@, temperature
 936              	@ src/main.c:146: 	pd->system->formatString( &stringnum, "Outer HZ - Maximum Greenhouse:  %2.2f AU"
 146:src/main.c    **** 	pd->graphics->drawText( stringnum, strlen( stringnum ), kASCIIEncoding, LPADDING + 30, CURSORINIT 
 937              		.loc 1 146 12 view .LVU227
 938 0344 D3F804A0 		ldr	r10, [r3, #4]	@ _120, _119->formatString
 939              	@ src/main.c:146: 	pd->system->formatString( &stringnum, "Outer HZ - Maximum Greenhouse:  %2.2f AU"
 146:src/main.c    **** 	pd->graphics->drawText( stringnum, strlen( stringnum ), kASCIIEncoding, LPADDING + 30, CURSORINIT 
 940              		.loc 1 146 84 view .LVU228
 941 0348 FFF7FEFF 		bl	getBoundary		@
 942              	.LVL44:
 943 034c F0EE400A 		vmov.f32	s1, s0	@ tmp581,
 944              	@ src/main.c:146: 	pd->system->formatString( &stringnum, "Outer HZ - Maximum Greenhouse:  %2.2f AU"
ARM GAS  /tmp/ccR8f7ao.s 			page 25


 146:src/main.c    **** 	pd->graphics->drawText( stringnum, strlen( stringnum ), kASCIIEncoding, LPADDING + 30, CURSORINIT 
 945              		.loc 1 146 84 discriminator 1 view .LVU229
 946 0350 B0EE480A 		vmov.f32	s0, s16	@, luminosity.69_121
 947 0354 FFF7FEFF 		bl	distance		@
 948              	.LVL45:
 949 0358 10EE100A 		vmov	r0, s0	@ tmp582,
 950              	@ src/main.c:146: 	pd->system->formatString( &stringnum, "Outer HZ - Maximum Greenhouse:  %2.2f AU"
 146:src/main.c    **** 	pd->graphics->drawText( stringnum, strlen( stringnum ), kASCIIEncoding, LPADDING + 30, CURSORINIT 
 951              		.loc 1 146 2 discriminator 2 view .LVU230
 952 035c FFF7FEFF 		bl	__aeabi_f2d		@
 953              	.LVL46:
 954 0360 0246     		mov	r2, r0	@ tmp583,
 955 0362 0B46     		mov	r3, r1	@,
 956 0364 2846     		mov	r0, r5	@, tmp421
 957 0366 5749     		ldr	r1, .L64+48	@,
 958 0368 D047     		blx	r10		@ _120
 959              	.LVL47:
 147:src/main.c    **** 
 960              		.loc 1 147 2 is_stmt 1 view .LVU231
 961 036a D5F800A0 		ldr	r10, [r5]	@ stringnum.72_129, stringnum
 962 036e 5046     		mov	r0, r10	@, stringnum.72_129
 963 0370 FFF7FEFF 		bl	strlen		@
 964              	.LVL48:
 965              	@ src/main.c:147: 	pd->graphics->drawText( stringnum, strlen( stringnum ), kASCIIEncoding, LPADDING
 147:src/main.c    **** 
 966              		.loc 1 147 4 is_stmt 0 view .LVU232
 967 0374 2368     		ldr	r3, [r4]	@ pd, pd
 968              	@ src/main.c:147: 	pd->graphics->drawText( stringnum, strlen( stringnum ), kASCIIEncoding, LPADDING
 147:src/main.c    **** 
 969              		.loc 1 147 2 discriminator 1 view .LVU233
 970 0376 8B22     		movs	r2, #139	@ tmp518,
 971              	@ src/main.c:147: 	pd->graphics->drawText( stringnum, strlen( stringnum ), kASCIIEncoding, LPADDING
 147:src/main.c    **** 
 972              		.loc 1 147 2 view .LVU234
 973 0378 0146     		mov	r1, r0	@ tmp584,
 974              	@ src/main.c:147: 	pd->graphics->drawText( stringnum, strlen( stringnum ), kASCIIEncoding, LPADDING
 147:src/main.c    **** 
 975              		.loc 1 147 14 view .LVU235
 976 037a 9B68     		ldr	r3, [r3, #8]	@ pd.71_126->graphics, pd.71_126->graphics
 977              	@ src/main.c:147: 	pd->graphics->drawText( stringnum, strlen( stringnum ), kASCIIEncoding, LPADDING
 147:src/main.c    **** 
 978              		.loc 1 147 2 discriminator 1 view .LVU236
 979 037c 5046     		mov	r0, r10	@, stringnum.72_129
 980 037e 0092     		str	r2, [sp]	@ tmp518,
 981 0380 0022     		movs	r2, #0	@,
 982 0382 D3F858A0 		ldr	r10, [r3, #88]	@ _127->drawText, _127->drawText
 983 0386 3C23     		movs	r3, #60	@,
 984 0388 D047     		blx	r10		@ _127->drawText
 985              	.LVL49:
 149:src/main.c    **** 
 986              		.loc 1 149 2 is_stmt 1 view .LVU237
 987              	@ src/main.c:149: 	pd->graphics->drawText( "Optimistic Limits", 20, kASCIIEncoding, LPADDING, CURSO
 149:src/main.c    **** 
 988              		.loc 1 149 4 is_stmt 0 view .LVU238
 989 038a 2268     		ldr	r2, [r4]	@ pd, pd
 990              	@ src/main.c:149: 	pd->graphics->drawText( "Optimistic Limits", 20, kASCIIEncoding, LPADDING, CURSO
 149:src/main.c    **** 
ARM GAS  /tmp/ccR8f7ao.s 			page 26


 991              		.loc 1 149 2 view .LVU239
 992 038c A421     		movs	r1, #164	@ tmp524,
 993 038e 4346     		mov	r3, r8	@, tmp452
 994              	@ src/main.c:149: 	pd->graphics->drawText( "Optimistic Limits", 20, kASCIIEncoding, LPADDING, CURSO
 149:src/main.c    **** 
 995              		.loc 1 149 14 view .LVU240
 996 0390 9268     		ldr	r2, [r2, #8]	@ pd.74_131->graphics, pd.74_131->graphics
 997              	@ src/main.c:149: 	pd->graphics->drawText( "Optimistic Limits", 20, kASCIIEncoding, LPADDING, CURSO
 149:src/main.c    **** 
 998              		.loc 1 149 2 view .LVU241
 999 0392 4D48     		ldr	r0, .L64+52	@,
 1000 0394 0091     		str	r1, [sp]	@ tmp524,
 1001 0396 1421     		movs	r1, #20	@,
 1002 0398 D2F85880 		ldr	r8, [r2, #88]	@ _132->drawText, _132->drawText
 1003 039c 0022     		movs	r2, #0	@,
 1004 039e C047     		blx	r8		@ _132->drawText
 1005              	.LVL50:
 151:src/main.c    **** 	pd->graphics->drawText( stringnum, strlen( stringnum ), kASCIIEncoding, LPADDING + 30, CURSORINIT 
 1006              		.loc 1 151 2 is_stmt 1 view .LVU242
 1007              	@ src/main.c:151: 	pd->system->formatString( &stringnum, "Inner HZ - Recent Venus:        %2.2f AU"
 151:src/main.c    **** 	pd->graphics->drawText( stringnum, strlen( stringnum ), kASCIIEncoding, LPADDING + 30, CURSORINIT 
 1008              		.loc 1 151 4 is_stmt 0 view .LVU243
 1009 03a0 2368     		ldr	r3, [r4]	@ pd, pd
 1010              	@ src/main.c:151: 	pd->system->formatString( &stringnum, "Inner HZ - Recent Venus:        %2.2f AU"
 151:src/main.c    **** 	pd->graphics->drawText( stringnum, strlen( stringnum ), kASCIIEncoding, LPADDING + 30, CURSORINIT 
 1011              		.loc 1 151 84 view .LVU244
 1012 03a2 97ED008A 		vldr.32	s16, [r7]	@ luminosity.76_137, luminosity
 1013 03a6 0020     		movs	r0, #0	@,
 1014              	@ src/main.c:151: 	pd->system->formatString( &stringnum, "Inner HZ - Recent Venus:        %2.2f AU"
 151:src/main.c    **** 	pd->graphics->drawText( stringnum, strlen( stringnum ), kASCIIEncoding, LPADDING + 30, CURSORINIT 
 1015              		.loc 1 151 12 view .LVU245
 1016 03a8 1B68     		ldr	r3, [r3]	@ pd.75_134->system, pd.75_134->system
 1017              	@ src/main.c:151: 	pd->system->formatString( &stringnum, "Inner HZ - Recent Venus:        %2.2f AU"
 151:src/main.c    **** 	pd->graphics->drawText( stringnum, strlen( stringnum ), kASCIIEncoding, LPADDING + 30, CURSORINIT 
 1018              		.loc 1 151 84 view .LVU246
 1019 03aa 96ED000A 		vldr.32	s0, [r6]	@, temperature
 1020              	@ src/main.c:151: 	pd->system->formatString( &stringnum, "Inner HZ - Recent Venus:        %2.2f AU"
 151:src/main.c    **** 	pd->graphics->drawText( stringnum, strlen( stringnum ), kASCIIEncoding, LPADDING + 30, CURSORINIT 
 1021              		.loc 1 151 12 view .LVU247
 1022 03ae D3F80480 		ldr	r8, [r3, #4]	@ _136, _135->formatString
 1023              	@ src/main.c:151: 	pd->system->formatString( &stringnum, "Inner HZ - Recent Venus:        %2.2f AU"
 151:src/main.c    **** 	pd->graphics->drawText( stringnum, strlen( stringnum ), kASCIIEncoding, LPADDING + 30, CURSORINIT 
 1024              		.loc 1 151 84 view .LVU248
 1025 03b2 FFF7FEFF 		bl	getBoundary		@
 1026              	.LVL51:
 1027 03b6 F0EE400A 		vmov.f32	s1, s0	@ tmp585,
 1028              	@ src/main.c:151: 	pd->system->formatString( &stringnum, "Inner HZ - Recent Venus:        %2.2f AU"
 151:src/main.c    **** 	pd->graphics->drawText( stringnum, strlen( stringnum ), kASCIIEncoding, LPADDING + 30, CURSORINIT 
 1029              		.loc 1 151 84 discriminator 1 view .LVU249
 1030 03ba B0EE480A 		vmov.f32	s0, s16	@, luminosity.76_137
 1031 03be FFF7FEFF 		bl	distance		@
 1032              	.LVL52:
 1033 03c2 10EE100A 		vmov	r0, s0	@ tmp586,
 1034              	@ src/main.c:151: 	pd->system->formatString( &stringnum, "Inner HZ - Recent Venus:        %2.2f AU"
 151:src/main.c    **** 	pd->graphics->drawText( stringnum, strlen( stringnum ), kASCIIEncoding, LPADDING + 30, CURSORINIT 
 1035              		.loc 1 151 2 discriminator 2 view .LVU250
 1036 03c6 FFF7FEFF 		bl	__aeabi_f2d		@
ARM GAS  /tmp/ccR8f7ao.s 			page 27


 1037              	.LVL53:
 1038 03ca 0246     		mov	r2, r0	@ tmp587,
 1039 03cc 0B46     		mov	r3, r1	@,
 1040 03ce 2846     		mov	r0, r5	@, tmp421
 1041 03d0 3E49     		ldr	r1, .L64+56	@,
 1042 03d2 C047     		blx	r8		@ _136
 1043              	.LVL54:
 152:src/main.c    **** 
 1044              		.loc 1 152 2 is_stmt 1 view .LVU251
 1045 03d4 D5F80080 		ldr	r8, [r5]	@ stringnum.79_145, stringnum
 1046 03d8 4046     		mov	r0, r8	@, stringnum.79_145
 1047 03da FFF7FEFF 		bl	strlen		@
 1048              	.LVL55:
 1049              	@ src/main.c:152: 	pd->graphics->drawText( stringnum, strlen( stringnum ), kASCIIEncoding, LPADDING
 152:src/main.c    **** 
 1050              		.loc 1 152 4 is_stmt 0 view .LVU252
 1051 03de 2368     		ldr	r3, [r4]	@ pd, pd
 1052              	@ src/main.c:152: 	pd->graphics->drawText( stringnum, strlen( stringnum ), kASCIIEncoding, LPADDING
 152:src/main.c    **** 
 1053              		.loc 1 152 2 discriminator 1 view .LVU253
 1054 03e0 BD22     		movs	r2, #189	@ tmp540,
 1055              	@ src/main.c:152: 	pd->graphics->drawText( stringnum, strlen( stringnum ), kASCIIEncoding, LPADDING
 152:src/main.c    **** 
 1056              		.loc 1 152 2 view .LVU254
 1057 03e2 0146     		mov	r1, r0	@ tmp588,
 1058              	@ src/main.c:152: 	pd->graphics->drawText( stringnum, strlen( stringnum ), kASCIIEncoding, LPADDING
 152:src/main.c    **** 
 1059              		.loc 1 152 14 view .LVU255
 1060 03e4 9B68     		ldr	r3, [r3, #8]	@ pd.78_142->graphics, pd.78_142->graphics
 1061              	@ src/main.c:152: 	pd->graphics->drawText( stringnum, strlen( stringnum ), kASCIIEncoding, LPADDING
 152:src/main.c    **** 
 1062              		.loc 1 152 2 discriminator 1 view .LVU256
 1063 03e6 4046     		mov	r0, r8	@, stringnum.79_145
 1064 03e8 0092     		str	r2, [sp]	@ tmp540,
 1065 03ea 0022     		movs	r2, #0	@,
 1066 03ec D3F85880 		ldr	r8, [r3, #88]	@ _143->drawText, _143->drawText
 1067 03f0 3C23     		movs	r3, #60	@,
 1068 03f2 C047     		blx	r8		@ _143->drawText
 1069              	.LVL56:
 154:src/main.c    **** 	pd->graphics->drawText( stringnum, strlen( stringnum ), kASCIIEncoding, LPADDING + 30, CURSORINIT 
 1070              		.loc 1 154 2 is_stmt 1 view .LVU257
 1071              	@ src/main.c:154: 	pd->system->formatString( &stringnum, "Outer HZ - Early Mars:          %2.2f AU"
 154:src/main.c    **** 	pd->graphics->drawText( stringnum, strlen( stringnum ), kASCIIEncoding, LPADDING + 30, CURSORINIT 
 1072              		.loc 1 154 4 is_stmt 0 view .LVU258
 1073 03f4 2368     		ldr	r3, [r4]	@ pd, pd
 1074              	@ src/main.c:154: 	pd->system->formatString( &stringnum, "Outer HZ - Early Mars:          %2.2f AU"
 154:src/main.c    **** 	pd->graphics->drawText( stringnum, strlen( stringnum ), kASCIIEncoding, LPADDING + 30, CURSORINIT 
 1075              		.loc 1 154 84 view .LVU259
 1076 03f6 97ED008A 		vldr.32	s16, [r7]	@ luminosity.82_150, luminosity
 1077 03fa 4846     		mov	r0, r9	@, tmp431
 1078              	@ src/main.c:154: 	pd->system->formatString( &stringnum, "Outer HZ - Early Mars:          %2.2f AU"
 154:src/main.c    **** 	pd->graphics->drawText( stringnum, strlen( stringnum ), kASCIIEncoding, LPADDING + 30, CURSORINIT 
 1079              		.loc 1 154 12 view .LVU260
 1080 03fc 1B68     		ldr	r3, [r3]	@ pd.81_147->system, pd.81_147->system
 1081              	@ src/main.c:154: 	pd->system->formatString( &stringnum, "Outer HZ - Early Mars:          %2.2f AU"
 154:src/main.c    **** 	pd->graphics->drawText( stringnum, strlen( stringnum ), kASCIIEncoding, LPADDING + 30, CURSORINIT 
 1082              		.loc 1 154 84 view .LVU261
ARM GAS  /tmp/ccR8f7ao.s 			page 28


 1083 03fe 96ED000A 		vldr.32	s0, [r6]	@, temperature
 1084              	@ src/main.c:154: 	pd->system->formatString( &stringnum, "Outer HZ - Early Mars:          %2.2f AU"
 154:src/main.c    **** 	pd->graphics->drawText( stringnum, strlen( stringnum ), kASCIIEncoding, LPADDING + 30, CURSORINIT 
 1085              		.loc 1 154 12 view .LVU262
 1086 0402 5E68     		ldr	r6, [r3, #4]	@ _149, _148->formatString
 1087              	@ src/main.c:154: 	pd->system->formatString( &stringnum, "Outer HZ - Early Mars:          %2.2f AU"
 154:src/main.c    **** 	pd->graphics->drawText( stringnum, strlen( stringnum ), kASCIIEncoding, LPADDING + 30, CURSORINIT 
 1088              		.loc 1 154 84 view .LVU263
 1089 0404 FFF7FEFF 		bl	getBoundary		@
 1090              	.LVL57:
 1091 0408 F0EE400A 		vmov.f32	s1, s0	@ tmp589,
 1092              	@ src/main.c:154: 	pd->system->formatString( &stringnum, "Outer HZ - Early Mars:          %2.2f AU"
 154:src/main.c    **** 	pd->graphics->drawText( stringnum, strlen( stringnum ), kASCIIEncoding, LPADDING + 30, CURSORINIT 
 1093              		.loc 1 154 84 discriminator 1 view .LVU264
 1094 040c B0EE480A 		vmov.f32	s0, s16	@, luminosity.82_150
 1095 0410 FFF7FEFF 		bl	distance		@
 1096              	.LVL58:
 1097 0414 10EE100A 		vmov	r0, s0	@ tmp590,
 1098              	@ src/main.c:154: 	pd->system->formatString( &stringnum, "Outer HZ - Early Mars:          %2.2f AU"
 154:src/main.c    **** 	pd->graphics->drawText( stringnum, strlen( stringnum ), kASCIIEncoding, LPADDING + 30, CURSORINIT 
 1099              		.loc 1 154 2 discriminator 2 view .LVU265
 1100 0418 FFF7FEFF 		bl	__aeabi_f2d		@
 1101              	.LVL59:
 1102 041c 0246     		mov	r2, r0	@ tmp591,
 1103 041e 0B46     		mov	r3, r1	@,
 1104 0420 2846     		mov	r0, r5	@, tmp421
 1105 0422 2B49     		ldr	r1, .L64+60	@,
 1106 0424 B047     		blx	r6		@ _149
 1107              	.LVL60:
 155:src/main.c    **** 
 1108              		.loc 1 155 2 is_stmt 1 view .LVU266
 1109 0426 2D68     		ldr	r5, [r5]	@ stringnum.85_158, stringnum
 1110 0428 2846     		mov	r0, r5	@, stringnum.85_158
 1111 042a FFF7FEFF 		bl	strlen		@
 1112              	.LVL61:
 1113              	@ src/main.c:155: 	pd->graphics->drawText( stringnum, strlen( stringnum ), kASCIIEncoding, LPADDING
 155:src/main.c    **** 
 1114              		.loc 1 155 4 is_stmt 0 view .LVU267
 1115 042e 2268     		ldr	r2, [r4]	@ pd, pd
 1116              	@ src/main.c:155: 	pd->graphics->drawText( stringnum, strlen( stringnum ), kASCIIEncoding, LPADDING
 155:src/main.c    **** 
 1117              		.loc 1 155 2 discriminator 1 view .LVU268
 1118 0430 D624     		movs	r4, #214	@ tmp556,
 1119              	@ src/main.c:155: 	pd->graphics->drawText( stringnum, strlen( stringnum ), kASCIIEncoding, LPADDING
 155:src/main.c    **** 
 1120              		.loc 1 155 2 view .LVU269
 1121 0432 0146     		mov	r1, r0	@ tmp592,
 1122              	@ src/main.c:155: 	pd->graphics->drawText( stringnum, strlen( stringnum ), kASCIIEncoding, LPADDING
 155:src/main.c    **** 
 1123              		.loc 1 155 14 view .LVU270
 1124 0434 9268     		ldr	r2, [r2, #8]	@ pd.84_155->graphics, pd.84_155->graphics
 1125              	@ src/main.c:155: 	pd->graphics->drawText( stringnum, strlen( stringnum ), kASCIIEncoding, LPADDING
 155:src/main.c    **** 
 1126              		.loc 1 155 2 discriminator 1 view .LVU271
 1127 0436 3C23     		movs	r3, #60	@,
 1128 0438 0094     		str	r4, [sp]	@ tmp556,
 1129 043a 2846     		mov	r0, r5	@, stringnum.85_158
ARM GAS  /tmp/ccR8f7ao.s 			page 29


 1130 043c 946D     		ldr	r4, [r2, #88]	@ _156->drawText, _156->drawText
 1131 043e 0022     		movs	r2, #0	@,
 1132 0440 A047     		blx	r4		@ _156->drawText
 1133              	.LVL62:
 157:src/main.c    **** }
 1134              		.loc 1 157 2 is_stmt 1 view .LVU272
 1135              	@ src/main.c:158: }
 158:src/main.c    **** 
 1136              		.loc 1 158 1 is_stmt 0 view .LVU273
 1137 0442 0120     		movs	r0, #1	@,
 1138 0444 05B0     		add	sp, sp, #20	@,,
 1139              	.LCFI6:
 1140              		.cfi_remember_state
 1141              		.cfi_def_cfa_offset 44
 1142              		@ sp needed	@
 1143 0446 BDEC028B 		vldm	sp!, {d8}	@
 1144              	.LCFI7:
 1145              		.cfi_restore 80
 1146              		.cfi_restore 81
 1147              		.cfi_def_cfa_offset 36
 1148 044a BDE8F08F 		pop	{r4, r5, r6, r7, r8, r9, r10, fp, pc}	@
 1149              	.L58:
 1150              	.LCFI8:
 1151              		.cfi_restore_state
  77:src/main.c    **** 		}
 1152              		.loc 1 77 4 is_stmt 1 view .LVU274
 1153              	@ src/main.c:77: 			temperature--;
  77:src/main.c    **** 		}
 1154              		.loc 1 77 15 is_stmt 0 view .LVU275
 1155 044e B7EE007A 		vmov.f32	s14, #1.0e+0	@ tmp338,
 1156 0452 D6ED007A 		vldr.32	s15, [r6]	@ temperature, temperature
 1157              	@ src/main.c:82: 			tflag = 1;
  82:src/main.c    **** 	}
 1158              		.loc 1 82 10 view .LVU276
 1159 0456 0123     		movs	r3, #1	@ tmp345,
 1160              	@ src/main.c:77: 			temperature--;
  77:src/main.c    **** 		}
 1161              		.loc 1 77 15 view .LVU277
 1162 0458 77EEC77A 		vsub.f32	s15, s15, s14	@ _31, temperature, tmp338
 1163              	@ src/main.c:82: 			tflag = 1;
  82:src/main.c    **** 	}
 1164              		.loc 1 82 10 view .LVU278
 1165 045c 2B60     		str	r3, [r5]	@ tmp345, tflag
 1166              	@ src/main.c:77: 			temperature--;
  77:src/main.c    **** 		}
 1167              		.loc 1 77 15 view .LVU279
 1168 045e C6ED007A 		vstr.32	s15, [r6]	@ _31, temperature
  82:src/main.c    **** 	}
 1169              		.loc 1 82 4 is_stmt 1 view .LVU280
  84:src/main.c    **** 		reset( pd );
 1170              		.loc 1 84 2 view .LVU281
 1171              	@ src/main.c:84: 	if ( pushed & kButtonB ) {
  84:src/main.c    **** 		reset( pd );
 1172              		.loc 1 84 5 is_stmt 0 view .LVU282
 1173 0462 002A     		cmp	r2, #0	@ _248
 1174 0464 3FF41CAE 		beq	.L61	@
 1175              	.L20:
ARM GAS  /tmp/ccR8f7ao.s 			page 30


  85:src/main.c    **** 	}
 1176              		.loc 1 85 3 is_stmt 1 view .LVU283
 1177              	.LVL63:
 1178              	.LBB4:
 1179              	.LBI4:
 160:src/main.c    **** {
 1180              		.loc 1 160 6 view .LVU284
 1181              	.LBB5:
 162:src/main.c    **** 	pd->system->setMenuItemValue( presetItem, Sun );
 1182              		.loc 1 162 2 view .LVU285
 163:src/main.c    **** 
 1183              		.loc 1 163 2 view .LVU286
 1184              	@ src/main.c:163: 	pd->system->setMenuItemValue( presetItem, Sun );
 163:src/main.c    **** 
 1185              		.loc 1 163 4 is_stmt 0 view .LVU287
 1186 0468 2368     		ldr	r3, [r4]	@ pd, pd
 1187              	@ src/main.c:163: 	pd->system->setMenuItemValue( presetItem, Sun );
 163:src/main.c    **** 
 1188              		.loc 1 163 2 view .LVU288
 1189 046a 0021     		movs	r1, #0	@,
 1190 046c 194A     		ldr	r2, .L64+64	@ tmp374,
 1191              	@ src/main.c:163: 	pd->system->setMenuItemValue( presetItem, Sun );
 163:src/main.c    **** 
 1192              		.loc 1 163 12 view .LVU289
 1193 046e 1B68     		ldr	r3, [r3]	@ pd.22_34->system, pd.22_34->system
 1194              	@ src/main.c:163: 	pd->system->setMenuItemValue( presetItem, Sun );
 163:src/main.c    **** 
 1195              		.loc 1 163 2 view .LVU290
 1196 0470 1068     		ldr	r0, [r2]	@, presetItem
 1197 0472 5B6E     		ldr	r3, [r3, #100]	@ _230->setMenuItemValue, _230->setMenuItemValue
 1198 0474 9847     		blx	r3		@ _230->setMenuItemValue
 1199              	.LVL64:
 165:src/main.c    **** 	cursorposition = CURSORINIT;
 1200              		.loc 1 165 2 is_stmt 1 view .LVU291
 1201 0476 0022     		movs	r2, #0	@,
 1202 0478 1749     		ldr	r1, .L64+68	@,
 1203 047a 1848     		ldr	r0, .L64+72	@,
 1204 047c FFF7FEFF 		bl	changePresetStar		@
 1205              	.LVL65:
 166:src/main.c    **** 	currentSelection = tempItem;
 1206              		.loc 1 166 2 view .LVU292
 1207              	@ src/main.c:166: 	cursorposition = CURSORINIT;
 166:src/main.c    **** 	currentSelection = tempItem;
 1208              		.loc 1 166 17 is_stmt 0 view .LVU293
 1209 0480 DFF85CA0 		ldr	r10, .L64+76	@ tmp564,
 1210 0484 1E23     		movs	r3, #30	@ tmp383,
 1211 0486 CAF80030 		str	r3, [r10]	@ tmp383, cursorposition
 167:src/main.c    **** 
 1212              		.loc 1 167 2 is_stmt 1 view .LVU294
 1213              	@ src/main.c:167: 	currentSelection = tempItem;
 167:src/main.c    **** 
 1214              		.loc 1 167 19 is_stmt 0 view .LVU295
 1215 048a 0023     		movs	r3, #0	@ tmp385,
 1216 048c 88F80030 		strb	r3, [r8]	@ tmp385, currentSelection
 169:src/main.c    **** }
 1217              		.loc 1 169 2 is_stmt 1 view .LVU296
 1218              	.LVL66:
ARM GAS  /tmp/ccR8f7ao.s 			page 31


 169:src/main.c    **** }
 1219              		.loc 1 169 2 is_stmt 0 view .LVU297
 1220 0490 6BE6     		b	.L22		@
 1221              	.L65:
 1222 0492 00BF     		.align	2
 1223              	.L64:
 1224 0494 00000000 		.word	currentSelection
 1225 0498 00401C45 		.word	1159479296
 1226 049c 0000E145 		.word	1172373504
 1227 04a0 00000000 		.word	stringnum
 1228 04a4 08000000 		.word	.LC1
 1229 04a8 0000F03F 		.word	1072693248
 1230 04ac 2C000000 		.word	.LC2
 1231 04b0 60000000 		.word	.LC3
 1232 04b4 84000000 		.word	.LC4
 1233 04b8 AC000000 		.word	.LC5
 1234 04bc B0000000 		.word	.LC6
 1235 04c0 C4000000 		.word	.LC7
 1236 04c4 F0000000 		.word	.LC8
 1237 04c8 1C010000 		.word	.LC9
 1238 04cc 30010000 		.word	.LC10
 1239 04d0 5C010000 		.word	.LC11
 1240 04d4 00000000 		.word	presetItem
 1241 04d8 00000000 		.word	luminosity
 1242 04dc 00000000 		.word	temperature
 1243 04e0 00000000 		.word	cursorposition
 1244              	.LVL67:
 1245              	.L57:
 169:src/main.c    **** }
 1246              		.loc 1 169 2 view .LVU298
 1247              	.LBE5:
 1248              	.LBE4:
  68:src/main.c    **** 		}
 1249              		.loc 1 68 4 is_stmt 1 view .LVU299
 1250              	@ src/main.c:68: 			temperature++;
  68:src/main.c    **** 		}
 1251              		.loc 1 68 15 is_stmt 0 view .LVU300
 1252 04e4 B7EE007A 		vmov.f32	s14, #1.0e+0	@ tmp320,
 1253 04e8 D6ED007A 		vldr.32	s15, [r6]	@ temperature, temperature
 1254 04ec 77EE877A 		vadd.f32	s15, s15, s14	@ _26, temperature, tmp320
 1255 04f0 C6ED007A 		vstr.32	s15, [r6]	@ _26, temperature
 1256 04f4 BAE5     		b	.L16		@
 1257              	.LVL68:
 1258              	.L59:
  59:src/main.c    **** 		}
 1259              		.loc 1 59 4 is_stmt 1 view .LVU301
 1260              	@ src/main.c:59: 			temperature += crankchange;
  59:src/main.c    **** 		}
 1261              		.loc 1 59 16 is_stmt 0 view .LVU302
 1262 04f6 074E     		ldr	r6, .L66	@ tmp561,
 1263 04f8 074F     		ldr	r7, .L66+4	@ tmp563,
 1264 04fa D6ED007A 		vldr.32	s15, [r6]	@ temperature, temperature
 1265 04fe 77EE807A 		vadd.f32	s15, s15, s0	@ _19, temperature, crankchange
 1266 0502 C6ED007A 		vstr.32	s15, [r6]	@ _19, temperature
 1267 0506 0BE6     		b	.L13		@
 1268              	.LVL69:
 1269              	.L60:
ARM GAS  /tmp/ccR8f7ao.s 			page 32


 121:src/main.c    **** 	}
 1270              		.loc 1 121 3 is_stmt 1 view .LVU303
 1271              	@ src/main.c:121: 		luminosity = 0.0;
 121:src/main.c    **** 	}
 1272              		.loc 1 121 14 is_stmt 0 view .LVU304
 1273 0508 3B60     		str	r3, [r7]	@ float	@ tmp413, luminosity
 1274 050a 67E6     		b	.L32		@
 1275              	.L43:
 1276 050c DFF80C80 		ldr	r8, .L66+8	@ tmp559,
 1277 0510 AAE7     		b	.L20		@
 1278              	.L67:
 1279 0512 00BF     		.align	2
 1280              	.L66:
 1281 0514 00000000 		.word	temperature
 1282 0518 00000000 		.word	luminosity
 1283 051c 00000000 		.word	currentSelection
 1284              		.cfi_endproc
 1285              	.LFE16:
 1286              		.size	update, .-update
 1287              		.section	.rodata.eventHandler.str1.4,"aMS",%progbits,1
 1288              		.align	2
 1289              	.LC12:
 1290 0000 7372632F 		.ascii	"src/main.c\000"
 1290      6D61696E 
 1290      2E6300
 1291 000b 00       		.align	2
 1292              	.LC13:
 1293 000c 25733A25 		.ascii	"%s:%i Couldn't load font %s: %s\000"
 1293      6920436F 
 1293      756C646E 
 1293      2774206C 
 1293      6F616420 
 1294              		.align	2
 1295              	.LC14:
 1296 002c 52657365 		.ascii	"Reset\000"
 1296      7400
 1297              		.section	.text.eventHandler,"ax",%progbits
 1298              		.align	1
 1299              		.p2align 4,,15
 1300              		.global	eventHandler
 1301              		.syntax unified
 1302              		.thumb
 1303              		.thumb_func
 1304              		.type	eventHandler, %function
 1305              	eventHandler:
 1306              	.LVL70:
 1307              	.LFB15:
  18:src/main.c    **** 	(void)arg; // arg is currently only used for event = kEventKeyPressed
 1308              		.loc 1 18 1 is_stmt 1 view -0
 1309              		.cfi_startproc
 1310              		@ args = 0, pretend = 0, frame = 8
 1311              		@ frame_needed = 0, uses_anonymous_args = 0
  19:src/main.c    **** 
 1312              		.loc 1 19 2 view .LVU306
  21:src/main.c    **** 		const char* err;
 1313              		.loc 1 21 2 view .LVU307
 1314              	@ src/main.c:21: 	if ( event == kEventInit ) {
ARM GAS  /tmp/ccR8f7ao.s 			page 33


  21:src/main.c    **** 		const char* err;
 1315              		.loc 1 21 5 is_stmt 0 view .LVU308
 1316 0000 0029     		cmp	r1, #0	@ tmp174
 1317 0002 36D1     		bne	.L72	@
 1318              	.LBB9:
  22:src/main.c    **** 		font = pd->graphics->loadFont( fontpath, &err );
 1319              		.loc 1 22 3 is_stmt 1 view .LVU309
  23:src/main.c    **** 		if ( font == NULL ) {
 1320              		.loc 1 23 3 view .LVU310
 1321              	@ src/main.c:23: 		font = pd->graphics->loadFont( fontpath, &err );
  23:src/main.c    **** 		if ( font == NULL ) {
 1322              		.loc 1 23 22 is_stmt 0 view .LVU311
 1323 0004 8368     		ldr	r3, [r0, #8]	@ pd_21(D)->graphics, pd_21(D)->graphics
 1324              	.LBE9:
 1325              	@ src/main.c:18: {
  18:src/main.c    **** 	(void)arg; // arg is currently only used for event = kEventKeyPressed
 1326              		.loc 1 18 1 view .LVU312
 1327 0006 30B5     		push	{r4, r5, lr}	@
 1328              	.LCFI9:
 1329              		.cfi_def_cfa_offset 12
 1330              		.cfi_offset 4, -12
 1331              		.cfi_offset 5, -8
 1332              		.cfi_offset 14, -4
 1333              	.LBB18:
 1334              	@ src/main.c:23: 		font = pd->graphics->loadFont( fontpath, &err );
  23:src/main.c    **** 		if ( font == NULL ) {
 1335              		.loc 1 23 10 view .LVU313
 1336 0008 204D     		ldr	r5, .L76	@ tmp137,
 1337              	.LBE18:
 1338              	@ src/main.c:18: {
  18:src/main.c    **** 	(void)arg; // arg is currently only used for event = kEventKeyPressed
 1339              		.loc 1 18 1 view .LVU314
 1340 000a 85B0     		sub	sp, sp, #20	@,,
 1341              	.LCFI10:
 1342              		.cfi_def_cfa_offset 32
 1343              	.LBB19:
 1344              	@ src/main.c:23: 		font = pd->graphics->loadFont( fontpath, &err );
  23:src/main.c    **** 		if ( font == NULL ) {
 1345              		.loc 1 23 10 view .LVU315
 1346 000c D3F89030 		ldr	r3, [r3, #144]	@ _1->loadFont, _1->loadFont
 1347 0010 0446     		mov	r4, r0	@ pd, tmp173
 1348 0012 03A9     		add	r1, sp, #12	@,,
 1349              	.LVL71:
  23:src/main.c    **** 		if ( font == NULL ) {
 1350              		.loc 1 23 10 view .LVU316
 1351 0014 2868     		ldr	r0, [r5]	@, fontpath
 1352              	.LVL72:
  23:src/main.c    **** 		if ( font == NULL ) {
 1353              		.loc 1 23 10 view .LVU317
 1354 0016 9847     		blx	r3		@ _1->loadFont
 1355              	.LVL73:
 1356              	@ src/main.c:23: 		font = pd->graphics->loadFont( fontpath, &err );
  23:src/main.c    **** 		if ( font == NULL ) {
 1357              		.loc 1 23 8 discriminator 1 view .LVU318
 1358 0018 1D4B     		ldr	r3, .L76+4	@ tmp141,
 1359 001a 1860     		str	r0, [r3]	@ _4, font
  24:src/main.c    **** 			pd->system->error( "%s:%i Couldn't load font %s: %s", __FILE__, __LINE__, fontpath, err );
ARM GAS  /tmp/ccR8f7ao.s 			page 34


 1360              		.loc 1 24 3 is_stmt 1 view .LVU319
 1361              	@ src/main.c:24: 		if ( font == NULL ) {
  24:src/main.c    **** 			pd->system->error( "%s:%i Couldn't load font %s: %s", __FILE__, __LINE__, fontpath, err );
 1362              		.loc 1 24 6 is_stmt 0 view .LVU320
 1363 001c 0028     		cmp	r0, #0	@ _4
 1364 001e 2AD0     		beq	.L75	@
 1365              	.L70:
  27:src/main.c    **** 
 1366              		.loc 1 27 3 is_stmt 1 view .LVU321
 1367              	@ src/main.c:27: 		pd->system->setUpdateCallback( update, pd );
  27:src/main.c    **** 
 1368              		.loc 1 27 13 is_stmt 0 view .LVU322
 1369 0020 2368     		ldr	r3, [r4]	@ pd_21(D)->system, pd_21(D)->system
 1370              	@ src/main.c:27: 		pd->system->setUpdateCallback( update, pd );
  27:src/main.c    **** 
 1371              		.loc 1 27 3 view .LVU323
 1372 0022 2146     		mov	r1, r4	@, pd
 1373 0024 1B48     		ldr	r0, .L76+8	@,
 1374 0026 1B6A     		ldr	r3, [r3, #32]	@ _9->setUpdateCallback, _9->setUpdateCallback
 1375 0028 9847     		blx	r3		@ _9->setUpdateCallback
 1376              	.LVL74:
  29:src/main.c    **** 		presetItem = pd->system->addOptionsMenuItem( "Star", presetlabels, NUM_PRESETS, selectPreset, pd 
 1377              		.loc 1 29 3 is_stmt 1 view .LVU324
 1378              	@ src/main.c:29: 		resetItem  = pd->system->addMenuItem( "Reset", reset, pd );
  29:src/main.c    **** 		presetItem = pd->system->addOptionsMenuItem( "Star", presetlabels, NUM_PRESETS, selectPreset, pd 
 1379              		.loc 1 29 26 is_stmt 0 view .LVU325
 1380 002a 2368     		ldr	r3, [r4]	@ pd_21(D)->system, pd_21(D)->system
 1381              	@ src/main.c:29: 		resetItem  = pd->system->addMenuItem( "Reset", reset, pd );
  29:src/main.c    **** 		presetItem = pd->system->addOptionsMenuItem( "Star", presetlabels, NUM_PRESETS, selectPreset, pd 
 1382              		.loc 1 29 16 view .LVU326
 1383 002c 2246     		mov	r2, r4	@, pd
 1384 002e 1A49     		ldr	r1, .L76+12	@,
 1385 0030 DB6C     		ldr	r3, [r3, #76]	@ _11->addMenuItem, _11->addMenuItem
 1386 0032 1A48     		ldr	r0, .L76+16	@,
 1387 0034 9847     		blx	r3		@ _11->addMenuItem
 1388              	.LVL75:
 1389              	@ src/main.c:30: 		presetItem = pd->system->addOptionsMenuItem( "Star", presetlabels, NUM_PRESETS, 
  30:src/main.c    **** 
 1390              		.loc 1 30 26 view .LVU327
 1391 0036 2168     		ldr	r1, [r4]	@ pd_21(D)->system, pd_21(D)->system
 1392              	@ src/main.c:29: 		resetItem  = pd->system->addMenuItem( "Reset", reset, pd );
  29:src/main.c    **** 		presetItem = pd->system->addOptionsMenuItem( "Star", presetlabels, NUM_PRESETS, selectPreset, pd 
 1393              		.loc 1 29 14 discriminator 1 view .LVU328
 1394 0038 194A     		ldr	r2, .L76+20	@ tmp156,
 1395              	@ src/main.c:30: 		presetItem = pd->system->addOptionsMenuItem( "Star", presetlabels, NUM_PRESETS, 
  30:src/main.c    **** 
 1396              		.loc 1 30 16 view .LVU329
 1397 003a 0094     		str	r4, [sp]	@ pd,
 1398 003c 194B     		ldr	r3, .L76+24	@,
 1399 003e 4D6D     		ldr	r5, [r1, #84]	@ _14->addOptionsMenuItem, _14->addOptionsMenuItem
 1400              	@ src/main.c:29: 		resetItem  = pd->system->addMenuItem( "Reset", reset, pd );
  29:src/main.c    **** 		presetItem = pd->system->addOptionsMenuItem( "Star", presetlabels, NUM_PRESETS, selectPreset, pd 
 1401              		.loc 1 29 14 discriminator 1 view .LVU330
 1402 0040 1060     		str	r0, [r2]	@ tmp176, resetItem
  30:src/main.c    **** 
 1403              		.loc 1 30 3 is_stmt 1 view .LVU331
 1404              	@ src/main.c:30: 		presetItem = pd->system->addOptionsMenuItem( "Star", presetlabels, NUM_PRESETS, 
ARM GAS  /tmp/ccR8f7ao.s 			page 35


  30:src/main.c    **** 
 1405              		.loc 1 30 16 is_stmt 0 view .LVU332
 1406 0042 0A22     		movs	r2, #10	@,
 1407 0044 1849     		ldr	r1, .L76+28	@,
 1408 0046 1948     		ldr	r0, .L76+32	@,
 1409 0048 A847     		blx	r5		@ _14->addOptionsMenuItem
 1410              	.LVL76:
 1411              	.LBB10:
 1412              	.LBB11:
 1413              	@ src/main.c:163: 	pd->system->setMenuItemValue( presetItem, Sun );
 163:src/main.c    **** 
 1414              		.loc 1 163 12 view .LVU333
 1415 004a 2368     		ldr	r3, [r4]	@ pd_21(D)->system, pd_21(D)->system
 1416              	.LBE11:
 1417              	.LBE10:
 1418              	@ src/main.c:30: 		presetItem = pd->system->addOptionsMenuItem( "Star", presetlabels, NUM_PRESETS, 
  30:src/main.c    **** 
 1419              		.loc 1 30 14 discriminator 1 view .LVU334
 1420 004c 184A     		ldr	r2, .L76+36	@ tmp162,
 1421              	.LBB15:
 1422              	.LBB12:
 1423              	@ src/main.c:163: 	pd->system->setMenuItemValue( presetItem, Sun );
 163:src/main.c    **** 
 1424              		.loc 1 163 2 view .LVU335
 1425 004e 0021     		movs	r1, #0	@,
 1426 0050 5B6E     		ldr	r3, [r3, #100]	@ _32->setMenuItemValue, _32->setMenuItemValue
 1427              	.LBE12:
 1428              	.LBE15:
 1429              	@ src/main.c:30: 		presetItem = pd->system->addOptionsMenuItem( "Star", presetlabels, NUM_PRESETS, 
  30:src/main.c    **** 
 1430              		.loc 1 30 14 discriminator 1 view .LVU336
 1431 0052 1060     		str	r0, [r2]	@ tmp177, presetItem
  32:src/main.c    **** 	}
 1432              		.loc 1 32 3 is_stmt 1 view .LVU337
 1433              	.LVL77:
 1434              	.LBB16:
 1435              	.LBI10:
 160:src/main.c    **** {
 1436              		.loc 1 160 6 view .LVU338
 1437              	.LBB13:
 162:src/main.c    **** 	pd->system->setMenuItemValue( presetItem, Sun );
 1438              		.loc 1 162 2 view .LVU339
 163:src/main.c    **** 
 1439              		.loc 1 163 2 view .LVU340
 1440 0054 9847     		blx	r3		@ _32->setMenuItemValue
 1441              	.LVL78:
 165:src/main.c    **** 	cursorposition = CURSORINIT;
 1442              		.loc 1 165 2 view .LVU341
 1443 0056 0022     		movs	r2, #0	@,
 1444 0058 1649     		ldr	r1, .L76+40	@,
 1445 005a 1748     		ldr	r0, .L76+44	@,
 1446 005c FFF7FEFF 		bl	changePresetStar		@
 1447              	.LVL79:
 166:src/main.c    **** 	currentSelection = tempItem;
 1448              		.loc 1 166 2 view .LVU342
 1449              	@ src/main.c:166: 	cursorposition = CURSORINIT;
 166:src/main.c    **** 	currentSelection = tempItem;
ARM GAS  /tmp/ccR8f7ao.s 			page 36


 1450              		.loc 1 166 17 is_stmt 0 view .LVU343
 1451 0060 1649     		ldr	r1, .L76+48	@ tmp167,
 1452 0062 1E20     		movs	r0, #30	@ tmp168,
 1453              	@ src/main.c:167: 	currentSelection = tempItem;
 167:src/main.c    **** 
 1454              		.loc 1 167 19 view .LVU344
 1455 0064 164B     		ldr	r3, .L76+52	@ tmp169,
 1456 0066 0022     		movs	r2, #0	@ tmp170,
 1457              	@ src/main.c:166: 	cursorposition = CURSORINIT;
 166:src/main.c    **** 	currentSelection = tempItem;
 1458              		.loc 1 166 17 view .LVU345
 1459 0068 0860     		str	r0, [r1]	@ tmp168, cursorposition
 167:src/main.c    **** 
 1460              		.loc 1 167 2 is_stmt 1 view .LVU346
 1461              	.LBE13:
 1462              	.LBE16:
 1463              	.LBE19:
 1464              	@ src/main.c:42: }
  42:src/main.c    **** 
 1465              		.loc 1 42 1 is_stmt 0 view .LVU347
 1466 006a 0020     		movs	r0, #0	@,
 1467              	.LBB20:
 1468              	.LBB17:
 1469              	.LBB14:
 1470              	@ src/main.c:167: 	currentSelection = tempItem;
 167:src/main.c    **** 
 1471              		.loc 1 167 19 view .LVU348
 1472 006c 1A70     		strb	r2, [r3]	@ tmp170, currentSelection
 169:src/main.c    **** }
 1473              		.loc 1 169 2 is_stmt 1 view .LVU349
 1474              	.LVL80:
 169:src/main.c    **** }
 1475              		.loc 1 169 2 is_stmt 0 view .LVU350
 1476              	.LBE14:
 1477              	.LBE17:
 1478              	.LBE20:
  39:src/main.c    **** 
 1479              		.loc 1 39 2 is_stmt 1 view .LVU351
  41:src/main.c    **** }
 1480              		.loc 1 41 2 view .LVU352
 1481              	@ src/main.c:42: }
  42:src/main.c    **** 
 1482              		.loc 1 42 1 is_stmt 0 view .LVU353
 1483 006e 05B0     		add	sp, sp, #20	@,,
 1484              	.LCFI11:
 1485              		.cfi_def_cfa_offset 12
 1486              		@ sp needed	@
 1487 0070 30BD     		pop	{r4, r5, pc}	@
 1488              	.LVL81:
 1489              	.L72:
 1490              	.LCFI12:
 1491              		.cfi_def_cfa_offset 0
 1492              		.cfi_restore 4
 1493              		.cfi_restore 5
 1494              		.cfi_restore 14
  39:src/main.c    **** 
 1495              		.loc 1 39 2 is_stmt 1 view .LVU354
ARM GAS  /tmp/ccR8f7ao.s 			page 37


  41:src/main.c    **** }
 1496              		.loc 1 41 2 view .LVU355
 1497              	@ src/main.c:42: }
  42:src/main.c    **** 
 1498              		.loc 1 42 1 is_stmt 0 view .LVU356
 1499 0072 0020     		movs	r0, #0	@,
 1500              	.LVL82:
  42:src/main.c    **** 
 1501              		.loc 1 42 1 view .LVU357
 1502 0074 7047     		bx	lr	@
 1503              	.LVL83:
 1504              	.L75:
 1505              	.LCFI13:
 1506              		.cfi_def_cfa_offset 32
 1507              		.cfi_offset 4, -12
 1508              		.cfi_offset 5, -8
 1509              		.cfi_offset 14, -4
 1510              	.LBB21:
  25:src/main.c    **** 		}
 1511              		.loc 1 25 4 is_stmt 1 view .LVU358
 1512              	@ src/main.c:25: 			pd->system->error( "%s:%i Couldn't load font %s: %s", __FILE__, __LINE__, fontp
  25:src/main.c    **** 		}
 1513              		.loc 1 25 14 is_stmt 0 view .LVU359
 1514 0076 2168     		ldr	r1, [r4]	@ pd_21(D)->system, pd_21(D)->system
 1515              	@ src/main.c:25: 			pd->system->error( "%s:%i Couldn't load font %s: %s", __FILE__, __LINE__, fontp
  25:src/main.c    **** 		}
 1516              		.loc 1 25 4 view .LVU360
 1517 0078 1922     		movs	r2, #25	@,
 1518 007a 0398     		ldr	r0, [sp, #12]	@ err, err
 1519 007c 2B68     		ldr	r3, [r5]	@, fontpath
 1520 007e 0090     		str	r0, [sp]	@ err,
 1521 0080 1048     		ldr	r0, .L76+56	@,
 1522 0082 CD68     		ldr	r5, [r1, #12]	@ pretmp_30->error, pretmp_30->error
 1523 0084 1049     		ldr	r1, .L76+60	@,
 1524 0086 A847     		blx	r5		@ pretmp_30->error
 1525              	.LVL84:
 1526 0088 CAE7     		b	.L70		@
 1527              	.L77:
 1528 008a 00BF     		.align	2
 1529              	.L76:
 1530 008c 00000000 		.word	fontpath
 1531 0090 00000000 		.word	font
 1532 0094 00000000 		.word	update
 1533 0098 00000000 		.word	reset
 1534 009c 2C000000 		.word	.LC14
 1535 00a0 00000000 		.word	resetItem
 1536 00a4 00000000 		.word	selectPreset
 1537 00a8 00000000 		.word	presetlabels
 1538 00ac 00000000 		.word	.LC0
 1539 00b0 00000000 		.word	presetItem
 1540 00b4 00000000 		.word	luminosity
 1541 00b8 00000000 		.word	temperature
 1542 00bc 00000000 		.word	cursorposition
 1543 00c0 00000000 		.word	currentSelection
 1544 00c4 0C000000 		.word	.LC13
 1545 00c8 00000000 		.word	.LC12
 1546              	.LBE21:
ARM GAS  /tmp/ccR8f7ao.s 			page 38


 1547              		.cfi_endproc
 1548              	.LFE15:
 1549              		.size	eventHandler, .-eventHandler
 1550              		.global	tflag
 1551              		.section	.bss.tflag,"aw",%nobits
 1552              		.align	2
 1553              		.type	tflag, %object
 1554              		.size	tflag, 4
 1555              	tflag:
 1556 0000 00000000 		.space	4
 1557              		.global	cursorposition
 1558              		.section	.bss.cursorposition,"aw",%nobits
 1559              		.align	2
 1560              		.type	cursorposition, %object
 1561              		.size	cursorposition, 4
 1562              	cursorposition:
 1563 0000 00000000 		.space	4
 1564              		.global	stringnum
 1565              		.section	.bss.stringnum,"aw",%nobits
 1566              		.align	2
 1567              		.type	stringnum, %object
 1568              		.size	stringnum, 4
 1569              	stringnum:
 1570 0000 00000000 		.space	4
 1571              		.global	luminosity
 1572              		.section	.bss.luminosity,"aw",%nobits
 1573              		.align	2
 1574              		.type	luminosity, %object
 1575              		.size	luminosity, 4
 1576              	luminosity:
 1577 0000 00000000 		.space	4
 1578              		.global	temperature
 1579              		.section	.bss.temperature,"aw",%nobits
 1580              		.align	2
 1581              		.type	temperature, %object
 1582              		.size	temperature, 4
 1583              	temperature:
 1584 0000 00000000 		.space	4
 1585              		.global	currentStar
 1586              		.section	.bss.currentStar,"aw",%nobits
 1587              		.type	currentStar, %object
 1588              		.size	currentStar, 1
 1589              	currentStar:
 1590 0000 00       		.space	1
 1591              		.global	currentSelection
 1592              		.section	.bss.currentSelection,"aw",%nobits
 1593              		.type	currentSelection, %object
 1594              		.size	currentSelection, 1
 1595              	currentSelection:
 1596 0000 00       		.space	1
 1597              		.global	presetItem
 1598              		.section	.bss.presetItem,"aw",%nobits
 1599              		.align	2
 1600              		.type	presetItem, %object
 1601              		.size	presetItem, 4
 1602              	presetItem:
 1603 0000 00000000 		.space	4
ARM GAS  /tmp/ccR8f7ao.s 			page 39


 1604              		.global	massItem
 1605              		.section	.bss.massItem,"aw",%nobits
 1606              		.align	2
 1607              		.type	massItem, %object
 1608              		.size	massItem, 4
 1609              	massItem:
 1610 0000 00000000 		.space	4
 1611              		.global	resetItem
 1612              		.section	.bss.resetItem,"aw",%nobits
 1613              		.align	2
 1614              		.type	resetItem, %object
 1615              		.size	resetItem, 4
 1616              	resetItem:
 1617 0000 00000000 		.space	4
 1618              		.global	font
 1619              		.section	.bss.font,"aw",%nobits
 1620              		.align	2
 1621              		.type	font, %object
 1622              		.size	font, 4
 1623              	font:
 1624 0000 00000000 		.space	4
 1625              		.global	pd
 1626              		.section	.bss.pd,"aw",%nobits
 1627              		.align	2
 1628              		.type	pd, %object
 1629              		.size	pd, 4
 1630              	pd:
 1631 0000 00000000 		.space	4
 1632              		.global	fontpath
 1633              		.section	.rodata.str1.4,"aMS",%progbits,1
 1634              		.align	2
 1635              	.LC15:
 1636 0000 666F6E74 		.ascii	"fonts/ibm-cga-condensed-8x16.pft\000"
 1636      732F6962 
 1636      6D2D6367 
 1636      612D636F 
 1636      6E64656E 
 1637              		.section	.data.fontpath,"aw"
 1638              		.align	2
 1639              		.type	fontpath, %object
 1640              		.size	fontpath, 4
 1641              	fontpath:
 1642 0000 00000000 		.word	.LC15
 1643              		.section	.rodata.str1.4
 1644 0021 000000   		.align	2
 1645              	.LC16:
 1646 0024 53756E00 		.ascii	"Sun\000"
 1647              		.align	2
 1648              	.LC17:
 1649 0028 50726F78 		.ascii	"Proxima Cen\000"
 1649      696D6120 
 1649      43656E00 
 1650              		.align	2
 1651              	.LC18:
 1652 0034 54524150 		.ascii	"TRAPPIST-1\000"
 1652      50495354 
 1652      2D3100
ARM GAS  /tmp/ccR8f7ao.s 			page 40


 1653 003f 00       		.align	2
 1654              	.LC19:
 1655 0040 35312050 		.ascii	"51 Pegasi\000"
 1655      65676173 
 1655      6900
 1656 004a 0000     		.align	2
 1657              	.LC20:
 1658 004c 4B322D31 		.ascii	"K2-18\000"
 1658      3800
 1659 0052 0000     		.align	2
 1660              	.LC21:
 1661 0054 576F6C66 		.ascii	"Wolf 1069\000"
 1661      20313036 
 1661      3900
 1662 005e 0000     		.align	2
 1663              	.LC22:
 1664 0060 4261726E 		.ascii	"Barnard's\000"
 1664      61726427 
 1664      7300
 1665 006a 0000     		.align	2
 1666              	.LC23:
 1667 006c 4C485320 		.ascii	"LHS 1140\000"
 1667      31313430 
 1667      00
 1668 0075 000000   		.align	2
 1669              	.LC24:
 1670 0078 474A2031 		.ascii	"GJ 1061\000"
 1670      30363100 
 1671              		.align	2
 1672              	.LC25:
 1673 0080 4B65706C 		.ascii	"Kepler 22\000"
 1673      65722032 
 1673      3200
 1674 008a 0000     		.align	2
 1675              	.LC26:
 1676 008c 55736572 		.ascii	"User Defined\000"
 1676      20446566 
 1676      696E6564 
 1676      00
 1677              		.section	.data.presetlabels,"aw"
 1678              		.align	2
 1679              		.type	presetlabels, %object
 1680              		.size	presetlabels, 44
 1681              	presetlabels:
 1682 0000 24000000 		.word	.LC16
 1683 0004 28000000 		.word	.LC17
 1684 0008 34000000 		.word	.LC18
 1685 000c 40000000 		.word	.LC19
 1686 0010 4C000000 		.word	.LC20
 1687 0014 54000000 		.word	.LC21
 1688 0018 60000000 		.word	.LC22
 1689 001c 6C000000 		.word	.LC23
 1690 0020 78000000 		.word	.LC24
 1691 0024 80000000 		.word	.LC25
 1692 0028 8C000000 		.word	.LC26
 1693              		.text
 1694              	.Letext0:
ARM GAS  /tmp/ccR8f7ao.s 			page 41


 1695              		.file 2 "/usr/arm-none-eabi/include/machine/_default_types.h"
 1696              		.file 3 "/usr/lib/gcc/arm-none-eabi/14.1.0/include/stddef.h"
 1697              		.file 4 "/usr/lib/gcc/arm-none-eabi/14.1.0/include/stdarg.h"
 1698              		.file 5 "/usr/arm-none-eabi/include/stdio.h"
 1699              		.file 6 "/usr/arm-none-eabi/include/sys/_stdint.h"
 1700              		.file 7 "/opt/PlaydateSDK/C_API/pd_api/pd_api_gfx.h"
 1701              		.file 8 "/opt/PlaydateSDK/C_API/pd_api/pd_api_sys.h"
 1702              		.file 9 "/opt/PlaydateSDK/C_API/pd_api/pd_api_lua.h"
 1703              		.file 10 "/opt/PlaydateSDK/C_API/pd_api/pd_api_json.h"
 1704              		.file 11 "/opt/PlaydateSDK/C_API/pd_api/pd_api_file.h"
 1705              		.file 12 "/opt/PlaydateSDK/C_API/pd_api/pd_api_sprite.h"
 1706              		.file 13 "/opt/PlaydateSDK/C_API/pd_api/pd_api_sound.h"
 1707              		.file 14 "/opt/PlaydateSDK/C_API/pd_api/pd_api_display.h"
 1708              		.file 15 "/opt/PlaydateSDK/C_API/pd_api/pd_api_scoreboards.h"
 1709              		.file 16 "/opt/PlaydateSDK/C_API/pd_api.h"
 1710              		.file 17 "src/habzone.h"
 1711              		.file 18 "src/stars.h"
 1712              		.file 19 "src/main.h"
 1713              		.file 20 "/usr/arm-none-eabi/include/string.h"
 1714              		.file 21 "<built-in>"