ARM GAS  /tmp/ccYYKKUo.s 			page 1


   1              		.cpu cortex-m7
   2              		.arch armv7e-m
   3              		.fpu fpv5-sp-d16
   4              		.eabi_attribute 27, 1	@ Tag_ABI_HardFP_use
   5              		.eabi_attribute 28, 1	@ Tag_ABI_VFP_args
   6              		.eabi_attribute 20, 1	@ Tag_ABI_FP_denormal
   7              		.eabi_attribute 21, 1	@ Tag_ABI_FP_exceptions
   8              		.eabi_attribute 23, 3	@ Tag_ABI_FP_number_model
   9              		.eabi_attribute 24, 1	@ Tag_ABI_align8_needed
  10              		.eabi_attribute 25, 1	@ Tag_ABI_align8_preserved
  11              		.eabi_attribute 26, 1	@ Tag_ABI_enum_size
  12              		.eabi_attribute 30, 2	@ Tag_ABI_optimization_goals
  13              		.eabi_attribute 34, 1	@ Tag_CPU_unaligned_access
  14              		.eabi_attribute 18, 4	@ Tag_ABI_PCS_wchar_t
  15              		.file	"setup.c"
  16              	@ GNU C17 (Fedora 14.1.0-4.fc42) version 14.1.0 (arm-none-eabi)
  17              	@	compiled by GNU C version 15.0.1 20250410 (Red Hat 15.0.1-0), GMP version 6.3.0, MPFR version 4.2
  18              	@ GGC heuristics: --param ggc-min-expand=100 --param ggc-min-heapsize=131072
  19              	@ options passed: -mthumb -mcpu=cortex-m7 -mfloat-abi=hard -mfpu=fpv5-sp-d16 -mword-relocations -ma
  20              		.text
  21              	.Ltext0:
  22              		.cfi_sections	.debug_frame
  23              		.file 1 "/opt/PlaydateSDK/C_API/buildsupport/setup.c"
  24              		.section	.text.eventHandlerShim,"ax",%progbits
  25              		.align	1
  26              		.p2align 4,,15
  27              		.global	eventHandlerShim
  28              		.syntax unified
  29              		.thumb
  30              		.thumb_func
  31              		.type	eventHandlerShim, %function
  32              	eventHandlerShim:
  33              	.LVL0:
  34              	.LFB15:
   1:/opt/PlaydateSDK/C_API/buildsupport/setup.c **** 
   2:/opt/PlaydateSDK/C_API/buildsupport/setup.c **** #include "pd_api.h"
   3:/opt/PlaydateSDK/C_API/buildsupport/setup.c **** 
   4:/opt/PlaydateSDK/C_API/buildsupport/setup.c **** typedef int (PDEventHandler)(PlaydateAPI* playdate, PDSystemEvent event, uint32_t arg);
   5:/opt/PlaydateSDK/C_API/buildsupport/setup.c **** 
   6:/opt/PlaydateSDK/C_API/buildsupport/setup.c **** extern PDEventHandler eventHandler;
   7:/opt/PlaydateSDK/C_API/buildsupport/setup.c **** 
   8:/opt/PlaydateSDK/C_API/buildsupport/setup.c **** static void* (*pdrealloc)(void* ptr, size_t size);
   9:/opt/PlaydateSDK/C_API/buildsupport/setup.c **** 
  10:/opt/PlaydateSDK/C_API/buildsupport/setup.c **** int eventHandlerShim(PlaydateAPI* playdate, PDSystemEvent event, uint32_t arg)
  11:/opt/PlaydateSDK/C_API/buildsupport/setup.c **** {
  35              		.loc 1 11 1 view -0
  36              		.cfi_startproc
  37              		@ args = 0, pretend = 0, frame = 0
  38              		@ frame_needed = 0, uses_anonymous_args = 0
  39              		@ link register save eliminated.
  12:/opt/PlaydateSDK/C_API/buildsupport/setup.c **** 	if ( event == kEventInit )
  40              		.loc 1 12 2 view .LVU1
  41              	@ /opt/PlaydateSDK/C_API/buildsupport/setup.c:12: 	if ( event == kEventInit )
  42              		.loc 1 12 5 is_stmt 0 view .LVU2
  43 0000 41B9     		cbnz	r1, .L4	@ event,
  13:/opt/PlaydateSDK/C_API/buildsupport/setup.c **** 		pdrealloc = playdate->system->realloc;
  44              		.loc 1 13 3 is_stmt 1 view .LVU3
ARM GAS  /tmp/ccYYKKUo.s 			page 2


  14:/opt/PlaydateSDK/C_API/buildsupport/setup.c **** 	
  15:/opt/PlaydateSDK/C_API/buildsupport/setup.c **** 	return eventHandler(playdate, event, arg);
  45              		.loc 1 15 2 view .LVU4
  46              	@ /opt/PlaydateSDK/C_API/buildsupport/setup.c:13: 		pdrealloc = playdate->system->realloc;
  13:/opt/PlaydateSDK/C_API/buildsupport/setup.c **** 		pdrealloc = playdate->system->realloc;
  47              		.loc 1 13 13 is_stmt 0 view .LVU5
  48 0002 054B     		ldr	r3, .L8	@ tmp120,
  49              	@ /opt/PlaydateSDK/C_API/buildsupport/setup.c:11: {
  11:/opt/PlaydateSDK/C_API/buildsupport/setup.c **** 	if ( event == kEventInit )
  50              		.loc 1 11 1 view .LVU6
  51 0004 10B4     		push	{r4}	@
  52              	.LCFI0:
  53              		.cfi_def_cfa_offset 4
  54              		.cfi_offset 4, -4
  55              	@ /opt/PlaydateSDK/C_API/buildsupport/setup.c:13: 		pdrealloc = playdate->system->realloc;
  13:/opt/PlaydateSDK/C_API/buildsupport/setup.c **** 		pdrealloc = playdate->system->realloc;
  56              		.loc 1 13 31 view .LVU7
  57 0006 0468     		ldr	r4, [r0]	@ playdate_6(D)->system, playdate_6(D)->system
  58              	@ /opt/PlaydateSDK/C_API/buildsupport/setup.c:13: 		pdrealloc = playdate->system->realloc;
  13:/opt/PlaydateSDK/C_API/buildsupport/setup.c **** 		pdrealloc = playdate->system->realloc;
  59              		.loc 1 13 13 view .LVU8
  60 0008 2468     		ldr	r4, [r4]	@ tmp127, _1->realloc
  61 000a 1C60     		str	r4, [r3]	@ tmp127, pdrealloc
  62              	@ /opt/PlaydateSDK/C_API/buildsupport/setup.c:16: }
  16:/opt/PlaydateSDK/C_API/buildsupport/setup.c **** }
  63              		.loc 1 16 1 view .LVU9
  64 000c 5DF8044B 		ldr	r4, [sp], #4	@,
  65              	.LCFI1:
  66              		.cfi_restore 4
  67              		.cfi_def_cfa_offset 0
  68              	@ /opt/PlaydateSDK/C_API/buildsupport/setup.c:15: 	return eventHandler(playdate, event, arg);
  15:/opt/PlaydateSDK/C_API/buildsupport/setup.c **** }
  69              		.loc 1 15 9 view .LVU10
  70 0010 FFF7FEBF 		b	eventHandler		@
  71              	.LVL1:
  72              	.L4:
  15:/opt/PlaydateSDK/C_API/buildsupport/setup.c **** }
  73              		.loc 1 15 2 is_stmt 1 view .LVU11
  74              	@ /opt/PlaydateSDK/C_API/buildsupport/setup.c:15: 	return eventHandler(playdate, event, arg);
  15:/opt/PlaydateSDK/C_API/buildsupport/setup.c **** }
  75              		.loc 1 15 9 is_stmt 0 view .LVU12
  76 0014 FFF7FEBF 		b	eventHandler		@
  77              	.LVL2:
  78              	.L9:
  15:/opt/PlaydateSDK/C_API/buildsupport/setup.c **** }
  79              		.loc 1 15 9 view .LVU13
  80              		.align	2
  81              	.L8:
  82 0018 00000000 		.word	pdrealloc
  83              		.cfi_endproc
  84              	.LFE15:
  85              		.size	eventHandlerShim, .-eventHandlerShim
  86              		.section	.text._malloc_r,"ax",%progbits
  87              		.align	1
  88              		.p2align 4,,15
  89              		.global	_malloc_r
  90              		.syntax unified
ARM GAS  /tmp/ccYYKKUo.s 			page 3


  91              		.thumb
  92              		.thumb_func
  93              		.type	_malloc_r, %function
  94              	_malloc_r:
  95              	.LVL3:
  96              	.LFB16:
  17:/opt/PlaydateSDK/C_API/buildsupport/setup.c **** 
  18:/opt/PlaydateSDK/C_API/buildsupport/setup.c **** #if TARGET_PLAYDATE
  19:/opt/PlaydateSDK/C_API/buildsupport/setup.c **** 
  20:/opt/PlaydateSDK/C_API/buildsupport/setup.c **** void* _malloc_r(struct _reent* _REENT, size_t nbytes) { return pdrealloc(NULL,nbytes); }
  97              		.loc 1 20 55 is_stmt 1 view -0
  98              		.cfi_startproc
  99              		@ args = 0, pretend = 0, frame = 0
 100              		@ frame_needed = 0, uses_anonymous_args = 0
 101              		@ link register save eliminated.
 102              		.loc 1 20 57 view .LVU15
 103              	@ /opt/PlaydateSDK/C_API/buildsupport/setup.c:20: void* _malloc_r(struct _reent* _REENT, size_t nby
 104              		.loc 1 20 64 is_stmt 0 view .LVU16
 105 0000 014B     		ldr	r3, .L11	@ tmp118,
 106 0002 0020     		movs	r0, #0	@,
 107              	.LVL4:
 108              		.loc 1 20 64 view .LVU17
 109 0004 1B68     		ldr	r3, [r3]	@ pdrealloc, pdrealloc
 110 0006 1847     		bx	r3		@ pdrealloc
 111              	.LVL5:
 112              	.L12:
 113              		.loc 1 20 64 view .LVU18
 114              		.align	2
 115              	.L11:
 116 0008 00000000 		.word	pdrealloc
 117              		.cfi_endproc
 118              	.LFE16:
 119              		.size	_malloc_r, .-_malloc_r
 120              		.section	.text._realloc_r,"ax",%progbits
 121              		.align	1
 122              		.p2align 4,,15
 123              		.global	_realloc_r
 124              		.syntax unified
 125              		.thumb
 126              		.thumb_func
 127              		.type	_realloc_r, %function
 128              	_realloc_r:
 129              	.LVL6:
 130              	.LFB17:
  21:/opt/PlaydateSDK/C_API/buildsupport/setup.c **** void* _realloc_r(struct _reent* _REENT, void* ptr, size_t nbytes) { return pdrealloc(ptr,nbytes); }
 131              		.loc 1 21 67 is_stmt 1 view -0
 132              		.cfi_startproc
 133              		@ args = 0, pretend = 0, frame = 0
 134              		@ frame_needed = 0, uses_anonymous_args = 0
 135              		@ link register save eliminated.
 136              		.loc 1 21 69 view .LVU20
 137              	@ /opt/PlaydateSDK/C_API/buildsupport/setup.c:21: void* _realloc_r(struct _reent* _REENT, void* ptr
 138              		.loc 1 21 76 is_stmt 0 view .LVU21
 139 0000 024B     		ldr	r3, .L14	@ tmp119,
 140              	@ /opt/PlaydateSDK/C_API/buildsupport/setup.c:21: void* _realloc_r(struct _reent* _REENT, void* ptr
 141              		.loc 1 21 67 view .LVU22
 142 0002 0846     		mov	r0, r1	@ tmp121, ptr
ARM GAS  /tmp/ccYYKKUo.s 			page 4


 143              	.LVL7:
 144              	@ /opt/PlaydateSDK/C_API/buildsupport/setup.c:21: void* _realloc_r(struct _reent* _REENT, void* ptr
 145              		.loc 1 21 76 view .LVU23
 146 0004 1146     		mov	r1, r2	@, tmp122
 147              	.LVL8:
 148              		.loc 1 21 76 view .LVU24
 149 0006 1B68     		ldr	r3, [r3]	@ pdrealloc, pdrealloc
 150 0008 1847     		bx	r3		@ pdrealloc
 151              	.LVL9:
 152              	.L15:
 153              		.loc 1 21 76 view .LVU25
 154 000a 00BF     		.align	2
 155              	.L14:
 156 000c 00000000 		.word	pdrealloc
 157              		.cfi_endproc
 158              	.LFE17:
 159              		.size	_realloc_r, .-_realloc_r
 160              		.section	.text._free_r,"ax",%progbits
 161              		.align	1
 162              		.p2align 4,,15
 163              		.global	_free_r
 164              		.syntax unified
 165              		.thumb
 166              		.thumb_func
 167              		.type	_free_r, %function
 168              	_free_r:
 169              	.LVL10:
 170              	.LFB18:
  22:/opt/PlaydateSDK/C_API/buildsupport/setup.c **** void _free_r(struct _reent* _REENT, void* ptr ) { if ( ptr != NULL ) pdrealloc(ptr,0); }
 171              		.loc 1 22 49 is_stmt 1 view -0
 172              		.cfi_startproc
 173              		@ args = 0, pretend = 0, frame = 0
 174              		@ frame_needed = 0, uses_anonymous_args = 0
 175              		@ link register save eliminated.
 176              		.loc 1 22 51 view .LVU27
 177              	@ /opt/PlaydateSDK/C_API/buildsupport/setup.c:22: void _free_r(struct _reent* _REENT, void* ptr ) {
 178              		.loc 1 22 54 is_stmt 0 view .LVU28
 179 0000 0846     		mov	r0, r1	@ ptr, tmp119
 180              	.LVL11:
 181              		.loc 1 22 54 view .LVU29
 182 0002 19B1     		cbz	r1, .L16	@ ptr,
 183              		.loc 1 22 70 is_stmt 1 discriminator 1 view .LVU30
 184 0004 024B     		ldr	r3, .L18	@ tmp117,
 185 0006 0021     		movs	r1, #0	@,
 186              	.LVL12:
 187              		.loc 1 22 70 is_stmt 0 discriminator 1 view .LVU31
 188 0008 1B68     		ldr	r3, [r3]	@ pdrealloc, pdrealloc
 189 000a 1847     		bx	r3		@ pdrealloc
 190              	.LVL13:
 191              	.L16:
 192              	@ /opt/PlaydateSDK/C_API/buildsupport/setup.c:22: void _free_r(struct _reent* _REENT, void* ptr ) {
 193              		.loc 1 22 88 view .LVU32
 194 000c 7047     		bx	lr	@
 195              	.L19:
 196 000e 00BF     		.align	2
 197              	.L18:
 198 0010 00000000 		.word	pdrealloc
ARM GAS  /tmp/ccYYKKUo.s 			page 5


 199              		.cfi_endproc
 200              	.LFE18:
 201              		.size	_free_r, .-_free_r
 202              		.section	.bss.pdrealloc,"aw",%nobits
 203              		.align	2
 204              		.type	pdrealloc, %object
 205              		.size	pdrealloc, 4
 206              	pdrealloc:
 207 0000 00000000 		.space	4
 208              		.text
 209              	.Letext0:
 210              		.file 2 "/usr/arm-none-eabi/include/machine/_default_types.h"
 211              		.file 3 "/usr/arm-none-eabi/include/sys/_stdint.h"
 212              		.file 4 "/usr/lib/gcc/arm-none-eabi/14.1.0/include/stddef.h"
 213              		.file 5 "/usr/arm-none-eabi/include/sys/_types.h"
 214              		.file 6 "/usr/arm-none-eabi/include/sys/reent.h"
 215              		.file 7 "/usr/arm-none-eabi/include/sys/lock.h"
 216              		.file 8 "/opt/PlaydateSDK/C_API/pd_api/pd_api_file.h"
 217              		.file 9 "/opt/PlaydateSDK/C_API/pd_api/pd_api_gfx.h"
 218              		.file 10 "/usr/lib/gcc/arm-none-eabi/14.1.0/include/stdarg.h"
 219              		.file 11 "/opt/PlaydateSDK/C_API/pd_api/pd_api_sys.h"
 220              		.file 12 "/opt/PlaydateSDK/C_API/pd_api/pd_api_lua.h"
 221              		.file 13 "/opt/PlaydateSDK/C_API/pd_api/pd_api_json.h"
 222              		.file 14 "/opt/PlaydateSDK/C_API/pd_api/pd_api_sprite.h"
 223              		.file 15 "/opt/PlaydateSDK/C_API/pd_api/pd_api_sound.h"
 224              		.file 16 "/opt/PlaydateSDK/C_API/pd_api/pd_api_display.h"
 225              		.file 17 "/opt/PlaydateSDK/C_API/pd_api/pd_api_scoreboards.h"
 226              		.file 18 "/opt/PlaydateSDK/C_API/pd_api/pd_api_network.h"
 227              		.file 19 "/opt/PlaydateSDK/C_API/pd_api.h"
 228              		.file 20 "/usr/arm-none-eabi/include/stdlib.h"
 229              		.file 21 "<built-in>"