ARM GAS  /tmp/ccXFiNL9.s 			page 1


   1              		.cpu cortex-m7
   2              		.arch armv7e-m
   3              		.fpu fpv5-sp-d16
   4              		.eabi_attribute 27, 1	@ Tag_ABI_HardFP_use
   5              		.eabi_attribute 28, 1	@ Tag_ABI_VFP_args
   6              		.eabi_attribute 20, 1	@ Tag_ABI_FP_denormal
   7              		.eabi_attribute 21, 1	@ Tag_ABI_FP_exceptions
   8              		.eabi_attribute 23, 3	@ Tag_ABI_FP_number_model
   9              		.eabi_attribute 24, 1	@ Tag_ABI_align8_needed
  10              		.eabi_attribute 25, 1	@ Tag_ABI_align8_preserved
  11              		.eabi_attribute 26, 1	@ Tag_ABI_enum_size
  12              		.eabi_attribute 30, 2	@ Tag_ABI_optimization_goals
  13              		.eabi_attribute 34, 1	@ Tag_CPU_unaligned_access
  14              		.eabi_attribute 18, 4	@ Tag_ABI_PCS_wchar_t
  15              		.file	"stars.c"
  16              	@ GNU C17 (Fedora 14.1.0-3.fc42) version 14.1.0 (arm-none-eabi)
  17              	@	compiled by GNU C version 15.0.1 20250114 (Red Hat 15.0.1-0), GMP version 6.3.0, MPFR version 4.2
  18              	@ warning: MPFR header version 4.2.1 differs from library version 4.2.2.
  19              	@ GGC heuristics: --param ggc-min-expand=100 --param ggc-min-heapsize=131072
  20              	@ options passed: -mthumb -mcpu=cortex-m7 -mfloat-abi=hard -mfpu=fpv5-sp-d16 -mword-relocations -ma
  21              		.text
  22              	.Ltext0:
  23              		.cfi_sections	.debug_frame
  24              		.file 1 "src/stars.c"
  25              		.section	.text.changePresetStar,"ax",%progbits
  26              		.align	1
  27              		.p2align 4,,15
  28              		.global	changePresetStar
  29              		.syntax unified
  30              		.thumb
  31              		.thumb_func
  32              		.type	changePresetStar, %function
  33              	changePresetStar:
  34              	.LVL0:
  35              	.LFB0:
   1:src/stars.c   **** #include "stars.h"
   2:src/stars.c   **** 
   3:src/stars.c   **** void changePresetStar( float* temp, float* lum, Star preset )
   4:src/stars.c   **** {
  36              		.loc 1 4 1 view -0
  37              		.cfi_startproc
  38              		@ args = 0, pretend = 0, frame = 0
  39              		@ frame_needed = 0, uses_anonymous_args = 0
  40              		@ link register save eliminated.
   5:src/stars.c   **** 	if ( preset != NUM_PRESETS ) {
  41              		.loc 1 5 2 view .LVU1
  42              	@ src/stars.c:5: 	if ( preset != NUM_PRESETS ) {
  43              		.loc 1 5 5 is_stmt 0 view .LVU2
  44 0000 0A2A     		cmp	r2, #10	@ preset,
  45 0002 0ED0     		beq	.L7		@,
   6:src/stars.c   **** 		*temp = starTemps[ preset ];
  46              		.loc 1 6 3 is_stmt 1 view .LVU3
  47              	@ src/stars.c:7: 		*lum  = starLums[ preset ];
   7:src/stars.c   **** 		*lum  = starLums[ preset ];
  48              		.loc 1 7 19 is_stmt 0 view .LVU4
  49 0004 074B     		ldr	r3, .L11	@ tmp124,
  50              	@ src/stars.c:4: {
ARM GAS  /tmp/ccXFiNL9.s 			page 2


   4:src/stars.c   **** 	if ( preset != NUM_PRESETS ) {
  51              		.loc 1 4 1 view .LVU5
  52 0006 10B4     		push	{r4}	@
  53              	.LCFI0:
  54              		.cfi_def_cfa_offset 4
  55              		.cfi_offset 4, -4
  56              	@ src/stars.c:6: 		*temp = starTemps[ preset ];
   6:src/stars.c   **** 		*temp = starTemps[ preset ];
  57              		.loc 1 6 20 view .LVU6
  58 0008 074C     		ldr	r4, .L11+4	@ tmp120,
  59              	@ src/stars.c:7: 		*lum  = starLums[ preset ];
  60              		.loc 1 7 19 view .LVU7
  61 000a 03EB8203 		add	r3, r3, r2, lsl #2	@ tmp126, tmp124, preset,
  62              	@ src/stars.c:6: 		*temp = starTemps[ preset ];
   6:src/stars.c   **** 		*temp = starTemps[ preset ];
  63              		.loc 1 6 20 view .LVU8
  64 000e 04EB820C 		add	ip, r4, r2, lsl #2	@ tmp122, tmp120, preset,
  65              	@ src/stars.c:7: 		*lum  = starLums[ preset ];
  66              		.loc 1 7 9 view .LVU9
  67 0012 1B68     		ldr	r3, [r3]	@ float	@ starLums[_1], starLums[_1]
  68              	@ src/stars.c:10: }
   8:src/stars.c   **** 	}
   9:src/stars.c   **** 	return;
  10:src/stars.c   **** }
  69              		.loc 1 10 1 view .LVU10
  70 0014 5DF8044B 		ldr	r4, [sp], #4	@,
  71              	.LCFI1:
  72              		.cfi_restore 4
  73              		.cfi_def_cfa_offset 0
  74              	@ src/stars.c:6: 		*temp = starTemps[ preset ];
   6:src/stars.c   **** 		*lum  = starLums[ preset ];
  75              		.loc 1 6 9 view .LVU11
  76 0018 DCF80020 		ldr	r2, [ip]	@ float	@ starTemps[_1], starTemps[_1]
  77              	.LVL1:
   6:src/stars.c   **** 		*lum  = starLums[ preset ];
  78              		.loc 1 6 9 view .LVU12
  79 001c 0260     		str	r2, [r0]	@ float	@ starTemps[_1], *temp_7(D)
   7:src/stars.c   **** 	}
  80              		.loc 1 7 3 is_stmt 1 view .LVU13
  81              	@ src/stars.c:7: 		*lum  = starLums[ preset ];
   7:src/stars.c   **** 	}
  82              		.loc 1 7 9 is_stmt 0 view .LVU14
  83 001e 0B60     		str	r3, [r1]	@ float	@ starLums[_1], *lum_9(D)
   9:src/stars.c   **** }
  84              		.loc 1 9 2 is_stmt 1 view .LVU15
  85              	@ src/stars.c:10: }
  86              		.loc 1 10 1 is_stmt 0 view .LVU16
  87 0020 7047     		bx	lr	@
  88              	.LVL2:
  89              	.L7:
  90              		.loc 1 10 1 view .LVU17
  91 0022 7047     		bx	lr	@
  92              	.L12:
  93              		.align	2
  94              	.L11:
  95 0024 00000000 		.word	starLums
  96 0028 00000000 		.word	starTemps
ARM GAS  /tmp/ccXFiNL9.s 			page 3


  97              		.cfi_endproc
  98              	.LFE0:
  99              		.size	changePresetStar, .-changePresetStar
 100              		.section	.text.checkCurrentStar,"ax",%progbits
 101              		.align	1
 102              		.p2align 4,,15
 103              		.global	checkCurrentStar
 104              		.syntax unified
 105              		.thumb
 106              		.thumb_func
 107              		.type	checkCurrentStar, %function
 108              	checkCurrentStar:
 109              	.LVL3:
 110              	.LFB1:
  11:src/stars.c   **** 
  12:src/stars.c   **** Star checkCurrentStar( float temp, float lum )
  13:src/stars.c   **** {
 111              		.loc 1 13 1 is_stmt 1 view -0
 112              		.cfi_startproc
 113              		@ args = 0, pretend = 0, frame = 0
 114              		@ frame_needed = 0, uses_anonymous_args = 0
 115              		@ link register save eliminated.
  14:src/stars.c   **** 	int i, current;
 116              		.loc 1 14 2 view .LVU19
  15:src/stars.c   **** 
  16:src/stars.c   **** 	current = -1;
 117              		.loc 1 16 2 view .LVU20
  17:src/stars.c   **** 	for ( i = 0; i < NUM_PRESETS; i++ ) {
 118              		.loc 1 17 2 view .LVU21
 119              		.loc 1 17 17 discriminator 1 view .LVU22
 120 0000 0C49     		ldr	r1, .L18	@ ivtmp.15,
 121              	@ src/stars.c:16: 	current = -1;
  16:src/stars.c   **** 	for ( i = 0; i < NUM_PRESETS; i++ ) {
 122              		.loc 1 16 10 is_stmt 0 view .LVU23
 123 0002 4FF0FF30 		mov	r0, #-1	@ current,
 124 0006 0C4A     		ldr	r2, .L18+4	@ ivtmp.16,
 125              	@ src/stars.c:17: 	for ( i = 0; i < NUM_PRESETS; i++ ) {
 126              		.loc 1 17 10 view .LVU24
 127 0008 0023     		movs	r3, #0	@ i,
 128              	.LVL4:
 129              	.L15:
  18:src/stars.c   **** 		if ( ( temp == starTemps[i] ) && ( lum == starLums[i] ) ) {
 130              		.loc 1 18 3 is_stmt 1 view .LVU25
 131              	@ src/stars.c:18: 		if ( ( temp == starTemps[i] ) && ( lum == starLums[i] ) ) {
 132              		.loc 1 18 27 is_stmt 0 view .LVU26
 133 000a F1EC017A 		vldmia.32	r1!, {s15}	@ ivtmp.15, _27
 134              	@ src/stars.c:18: 		if ( ( temp == starTemps[i] ) && ( lum == starLums[i] ) ) {
 135              		.loc 1 18 6 view .LVU27
 136 000e B4EE670A 		vcmp.f32	s0, s15	@ temp, _27
 137 0012 F1EE10FA 		vmrs	APSR_nzcv, FPSCR
 138 0016 07D1     		bne	.L14		@,
 139              	@ src/stars.c:18: 		if ( ( temp == starTemps[i] ) && ( lum == starLums[i] ) ) {
 140              		.loc 1 18 33 discriminator 1 view .LVU28
 141 0018 D2ED007A 		vldr.32	s15, [r2]	@ MEM[(float *)_19], MEM[(float *)_19]
 142              	@ src/stars.c:19: 			current = i;
  19:src/stars.c   **** 			current = i;
 143              		.loc 1 19 12 view .LVU29
ARM GAS  /tmp/ccXFiNL9.s 			page 4


 144 001c F4EE670A 		vcmp.f32	s1, s15	@ lum, MEM[(float *)_19]
 145 0020 F1EE10FA 		vmrs	APSR_nzcv, FPSCR
 146 0024 08BF     		it	eq
 147 0026 1846     		moveq	r0, r3	@ current, i
 148              	.LVL5:
 149              	.L14:
  17:src/stars.c   **** 		if ( ( temp == starTemps[i] ) && ( lum == starLums[i] ) ) {
 150              		.loc 1 17 33 is_stmt 1 discriminator 2 view .LVU30
 151 0028 0133     		adds	r3, r3, #1	@ i, i,
 152              	.LVL6:
  17:src/stars.c   **** 		if ( ( temp == starTemps[i] ) && ( lum == starLums[i] ) ) {
 153              		.loc 1 17 17 discriminator 1 view .LVU31
 154 002a 0432     		adds	r2, r2, #4	@ ivtmp.16, ivtmp.16,
 155 002c 0A2B     		cmp	r3, #10	@ i,
 156 002e ECD1     		bne	.L15		@,
  20:src/stars.c   **** 		}
  21:src/stars.c   **** 	}
  22:src/stars.c   **** 	return current;
 157              		.loc 1 22 2 view .LVU32
 158              	@ src/stars.c:23: }
  23:src/stars.c   **** }
 159              		.loc 1 23 1 is_stmt 0 view .LVU33
 160 0030 C0B2     		uxtb	r0, r0	@, current
 161              	.LVL7:
 162              		.loc 1 23 1 view .LVU34
 163 0032 7047     		bx	lr	@
 164              	.L19:
 165              		.align	2
 166              	.L18:
 167 0034 00000000 		.word	starTemps
 168 0038 00000000 		.word	starLums
 169              		.cfi_endproc
 170              	.LFE1:
 171              		.size	checkCurrentStar, .-checkCurrentStar
 172              		.section	.rodata.starLums,"a"
 173              		.align	2
 174              		.type	starLums, %object
 175              		.size	starLums, 40
 176              	starLums:
 177 0000 0000803F 		.word	1065353216
 178 0004 6F12033B 		.word	990057071
 179 0008 6F12833A 		.word	981668463
 180 000c AAF1B23F 		.word	1068691882
 181 0010 7F6ABC3C 		.word	1018980991
 182 0014 A69B443B 		.word	994352038
 183 0018 A69B443B 		.word	994352038
 184 001c 6F12833B 		.word	998445679
 185 0020 6F12033B 		.word	990057071
 186 0024 713D4A3F 		.word	1061830001
 187              		.section	.rodata.starTemps,"a"
 188              		.align	2
 189              		.type	starTemps, %object
 190              		.size	starTemps, 40
 191              	starTemps:
 192 0000 00A0B445 		.word	1169465344
 193 0004 00003B45 		.word	1161494528
 194 0008 00602045 		.word	1159749632
ARM GAS  /tmp/ccXFiNL9.s 			page 5


 195 000c 0040B445 		.word	1169440768
 196 0010 00D06345 		.word	1164169216
 197 0014 00604545 		.word	1162174464
 198 0018 00B04745 		.word	1162326016
 199 001c 00804145 		.word	1161920512
 200 0020 00103A45 		.word	1161433088
 201 0024 00E0AE45 		.word	1169088512
 202              		.text
 203              	.Letext0:
 204              		.file 2 "src/stars.h"
 205              		.section	.debug_info,"",%progbits
 206              	.Ldebug_info0:
 207 0000 CB010000 		.4byte	0x1cb
 208 0004 0200     		.2byte	0x2
 209 0006 00000000 		.4byte	.Ldebug_abbrev0
 210 000a 04       		.byte	0x4
 211 000b 01       		.uleb128 0x1
 212 000c 7E2A0000 		.4byte	.LASF483
 213 0010 0C       		.byte	0xc
 214 0011 5A170000 		.4byte	.LASF484
 215 0015 451C0000 		.4byte	.LASF485
 216 0019 00000000 		.4byte	.Ldebug_ranges0+0
 217 001d 00000000 		.4byte	0
 218 0021 00000000 		.4byte	0
 219 0025 00000000 		.4byte	.Ldebug_line0
 220 0029 00000000 		.4byte	.Ldebug_macro0
 221 002d 02       		.uleb128 0x2
 222 002e 08       		.byte	0x8
 223 002f 07       		.byte	0x7
 224 0030 150C0000 		.4byte	.LASF464
 225 0034 02       		.uleb128 0x2
 226 0035 01       		.byte	0x1
 227 0036 08       		.byte	0x8
 228 0037 ED260000 		.4byte	.LASF465
 229 003b 03       		.uleb128 0x3
 230 003c 07       		.byte	0x7
 231 003d 01       		.byte	0x1
 232 003e 34000000 		.4byte	0x34
 233 0042 02       		.byte	0x2
 234 0043 06       		.byte	0x6
 235 0044 0E       		.byte	0xe
 236 0045 8C000000 		.4byte	0x8c
 237 0049 04       		.uleb128 0x4
 238 004a 53756E00 		.ascii	"Sun\000"
 239 004e 00       		.byte	0
 240 004f 05       		.uleb128 0x5
 241 0050 01150000 		.4byte	.LASF466
 242 0054 01       		.byte	0x1
 243 0055 05       		.uleb128 0x5
 244 0056 E8110000 		.4byte	.LASF467
 245 005a 02       		.byte	0x2
 246 005b 05       		.uleb128 0x5
 247 005c EE280000 		.4byte	.LASF468
 248 0060 03       		.byte	0x3
 249 0061 05       		.uleb128 0x5
 250 0062 B72C0000 		.4byte	.LASF469
 251 0066 04       		.byte	0x4
ARM GAS  /tmp/ccXFiNL9.s 			page 6


 252 0067 05       		.uleb128 0x5
 253 0068 771F0000 		.4byte	.LASF470
 254 006c 05       		.byte	0x5
 255 006d 05       		.uleb128 0x5
 256 006e 23240000 		.4byte	.LASF471
 257 0072 06       		.byte	0x6
 258 0073 05       		.uleb128 0x5
 259 0074 D1210000 		.4byte	.LASF472
 260 0078 07       		.byte	0x7
 261 0079 05       		.uleb128 0x5
 262 007a 921D0000 		.4byte	.LASF473
 263 007e 08       		.byte	0x8
 264 007f 05       		.uleb128 0x5
 265 0080 F32E0000 		.4byte	.LASF474
 266 0084 09       		.byte	0x9
 267 0085 05       		.uleb128 0x5
 268 0086 C81E0000 		.4byte	.LASF475
 269 008a 0A       		.byte	0xa
 270 008b 00       		.byte	0
 271 008c 06       		.uleb128 0x6
 272 008d CF2C0000 		.4byte	.LASF486
 273 0091 02       		.byte	0x2
 274 0092 12       		.byte	0x12
 275 0093 03       		.byte	0x3
 276 0094 3B000000 		.4byte	0x3b
 277 0098 07       		.uleb128 0x7
 278 0099 AF000000 		.4byte	0xaf
 279 009d A8000000 		.4byte	0xa8
 280 00a1 08       		.uleb128 0x8
 281 00a2 A8000000 		.4byte	0xa8
 282 00a6 0A       		.byte	0xa
 283 00a7 00       		.byte	0
 284 00a8 02       		.uleb128 0x2
 285 00a9 04       		.byte	0x4
 286 00aa 07       		.byte	0x7
 287 00ab 2F030000 		.4byte	.LASF476
 288 00af 09       		.uleb128 0x9
 289 00b0 04       		.byte	0x4
 290 00b1 BC000000 		.4byte	0xbc
 291 00b5 02       		.uleb128 0x2
 292 00b6 01       		.byte	0x1
 293 00b7 08       		.byte	0x8
 294 00b8 56010000 		.4byte	.LASF477
 295 00bc 0A       		.uleb128 0xa
 296 00bd B5000000 		.4byte	0xb5
 297 00c1 0B       		.uleb128 0xb
 298 00c2 FC2C0000 		.4byte	.LASF487
 299 00c6 02       		.byte	0x2
 300 00c7 14       		.byte	0x14
 301 00c8 14       		.byte	0x14
 302 00c9 98000000 		.4byte	0x98
 303 00cd 07       		.uleb128 0x7
 304 00ce E9000000 		.4byte	0xe9
 305 00d2 DD000000 		.4byte	0xdd
 306 00d6 08       		.uleb128 0x8
 307 00d7 A8000000 		.4byte	0xa8
 308 00db 09       		.byte	0x9
ARM GAS  /tmp/ccXFiNL9.s 			page 7


 309 00dc 00       		.byte	0
 310 00dd 0A       		.uleb128 0xa
 311 00de CD000000 		.4byte	0xcd
 312 00e2 02       		.uleb128 0x2
 313 00e3 04       		.byte	0x4
 314 00e4 04       		.byte	0x4
 315 00e5 880A0000 		.4byte	.LASF478
 316 00e9 0A       		.uleb128 0xa
 317 00ea E2000000 		.4byte	0xe2
 318 00ee 0C       		.uleb128 0xc
 319 00ef 902D0000 		.4byte	.LASF479
 320 00f3 02       		.byte	0x2
 321 00f4 22       		.byte	0x22
 322 00f5 14       		.byte	0x14
 323 00f6 DD000000 		.4byte	0xdd
 324 00fa 05       		.byte	0x5
 325 00fb 03       		.byte	0x3
 326 00fc 00000000 		.4byte	starTemps
 327 0100 0C       		.uleb128 0xc
 328 0101 16130000 		.4byte	.LASF480
 329 0105 02       		.byte	0x2
 330 0106 2F       		.byte	0x2f
 331 0107 14       		.byte	0x14
 332 0108 DD000000 		.4byte	0xdd
 333 010c 05       		.byte	0x5
 334 010d 03       		.byte	0x3
 335 010e 00000000 		.4byte	starLums
 336 0112 0D       		.uleb128 0xd
 337 0113 01       		.byte	0x1
 338 0114 CD1F0000 		.4byte	.LASF488
 339 0118 01       		.byte	0x1
 340 0119 0C       		.byte	0xc
 341 011a 06       		.byte	0x6
 342 011b 01       		.byte	0x1
 343 011c 8C000000 		.4byte	0x8c
 344 0120 00000000 		.4byte	.LFB1
 345 0124 3C000000 		.4byte	.LFE1
 346 0128 02       		.byte	0x2
 347 0129 7D       		.byte	0x7d
 348 012a 00       		.sleb128 0
 349 012b 01       		.byte	0x1
 350 012c 75010000 		.4byte	0x175
 351 0130 0E       		.uleb128 0xe
 352 0131 A8010000 		.4byte	.LASF481
 353 0135 01       		.byte	0x1
 354 0136 0C       		.byte	0xc
 355 0137 1E       		.byte	0x1e
 356 0138 E2000000 		.4byte	0xe2
 357 013c 02       		.byte	0x2
 358 013d 90       		.byte	0x90
 359 013e 40       		.uleb128 0x40
 360 013f 0F       		.uleb128 0xf
 361 0140 6C756D00 		.ascii	"lum\000"
 362 0144 01       		.byte	0x1
 363 0145 0C       		.byte	0xc
 364 0146 2A       		.byte	0x2a
 365 0147 E2000000 		.4byte	0xe2
ARM GAS  /tmp/ccXFiNL9.s 			page 8


 366 014b 02       		.byte	0x2
 367 014c 90       		.byte	0x90
 368 014d 41       		.uleb128 0x41
 369 014e 10       		.uleb128 0x10
 370 014f 6900     		.ascii	"i\000"
 371 0151 01       		.byte	0x1
 372 0152 0E       		.byte	0xe
 373 0153 06       		.byte	0x6
 374 0154 75010000 		.4byte	0x175
 375 0158 04000000 		.4byte	.LLST2
 376 015c 00000000 		.4byte	.LVUS2
 377 0160 11       		.uleb128 0x11
 378 0161 7E2C0000 		.4byte	.LASF482
 379 0165 01       		.byte	0x1
 380 0166 0E       		.byte	0xe
 381 0167 09       		.byte	0x9
 382 0168 75010000 		.4byte	0x175
 383 016c 27000000 		.4byte	.LLST3
 384 0170 23000000 		.4byte	.LVUS3
 385 0174 00       		.byte	0
 386 0175 12       		.uleb128 0x12
 387 0176 04       		.byte	0x4
 388 0177 05       		.byte	0x5
 389 0178 696E7400 		.ascii	"int\000"
 390 017c 13       		.uleb128 0x13
 391 017d 01       		.byte	0x1
 392 017e 000D0000 		.4byte	.LASF489
 393 0182 01       		.byte	0x1
 394 0183 03       		.byte	0x3
 395 0184 06       		.byte	0x6
 396 0185 01       		.byte	0x1
 397 0186 00000000 		.4byte	.LFB0
 398 018a 2C000000 		.4byte	.LFE0
 399 018e 47000000 		.4byte	.LLST0
 400 0192 01       		.byte	0x1
 401 0193 C8010000 		.4byte	0x1c8
 402 0197 0E       		.uleb128 0xe
 403 0198 A8010000 		.4byte	.LASF481
 404 019c 01       		.byte	0x1
 405 019d 03       		.byte	0x3
 406 019e 1F       		.byte	0x1f
 407 019f C8010000 		.4byte	0x1c8
 408 01a3 01       		.byte	0x1
 409 01a4 50       		.byte	0x50
 410 01a5 0F       		.uleb128 0xf
 411 01a6 6C756D00 		.ascii	"lum\000"
 412 01aa 01       		.byte	0x1
 413 01ab 03       		.byte	0x3
 414 01ac 2C       		.byte	0x2c
 415 01ad C8010000 		.4byte	0x1c8
 416 01b1 01       		.byte	0x1
 417 01b2 51       		.byte	0x51
 418 01b3 14       		.uleb128 0x14
 419 01b4 A3090000 		.4byte	.LASF490
 420 01b8 01       		.byte	0x1
 421 01b9 03       		.byte	0x3
 422 01ba 36       		.byte	0x36
ARM GAS  /tmp/ccXFiNL9.s 			page 9


 423 01bb 8C000000 		.4byte	0x8c
 424 01bf 79000000 		.4byte	.LLST1
 425 01c3 73000000 		.4byte	.LVUS1
 426 01c7 00       		.byte	0
 427 01c8 09       		.uleb128 0x9
 428 01c9 04       		.byte	0x4
 429 01ca E2000000 		.4byte	0xe2
 430 01ce 00       		.byte	0
 431              		.section	.debug_abbrev,"",%progbits
 432              	.Ldebug_abbrev0:
 433 0000 01       		.uleb128 0x1
 434 0001 11       		.uleb128 0x11
 435 0002 01       		.byte	0x1
 436 0003 25       		.uleb128 0x25
 437 0004 0E       		.uleb128 0xe
 438 0005 13       		.uleb128 0x13
 439 0006 0B       		.uleb128 0xb
 440 0007 03       		.uleb128 0x3
 441 0008 0E       		.uleb128 0xe
 442 0009 1B       		.uleb128 0x1b
 443 000a 0E       		.uleb128 0xe
 444 000b 55       		.uleb128 0x55
 445 000c 06       		.uleb128 0x6
 446 000d 11       		.uleb128 0x11
 447 000e 01       		.uleb128 0x1
 448 000f 52       		.uleb128 0x52
 449 0010 01       		.uleb128 0x1
 450 0011 10       		.uleb128 0x10
 451 0012 06       		.uleb128 0x6
 452 0013 9942     		.uleb128 0x2119
 453 0015 06       		.uleb128 0x6
 454 0016 00       		.byte	0
 455 0017 00       		.byte	0
 456 0018 02       		.uleb128 0x2
 457 0019 24       		.uleb128 0x24
 458 001a 00       		.byte	0
 459 001b 0B       		.uleb128 0xb
 460 001c 0B       		.uleb128 0xb
 461 001d 3E       		.uleb128 0x3e
 462 001e 0B       		.uleb128 0xb
 463 001f 03       		.uleb128 0x3
 464 0020 0E       		.uleb128 0xe
 465 0021 00       		.byte	0
 466 0022 00       		.byte	0
 467 0023 03       		.uleb128 0x3
 468 0024 04       		.uleb128 0x4
 469 0025 01       		.byte	0x1
 470 0026 3E       		.uleb128 0x3e
 471 0027 0B       		.uleb128 0xb
 472 0028 0B       		.uleb128 0xb
 473 0029 0B       		.uleb128 0xb
 474 002a 49       		.uleb128 0x49
 475 002b 13       		.uleb128 0x13
 476 002c 3A       		.uleb128 0x3a
 477 002d 0B       		.uleb128 0xb
 478 002e 3B       		.uleb128 0x3b
 479 002f 0B       		.uleb128 0xb
ARM GAS  /tmp/ccXFiNL9.s 			page 10


 480 0030 39       		.uleb128 0x39
 481 0031 0B       		.uleb128 0xb
 482 0032 01       		.uleb128 0x1
 483 0033 13       		.uleb128 0x13
 484 0034 00       		.byte	0
 485 0035 00       		.byte	0
 486 0036 04       		.uleb128 0x4
 487 0037 28       		.uleb128 0x28
 488 0038 00       		.byte	0
 489 0039 03       		.uleb128 0x3
 490 003a 08       		.uleb128 0x8
 491 003b 1C       		.uleb128 0x1c
 492 003c 0B       		.uleb128 0xb
 493 003d 00       		.byte	0
 494 003e 00       		.byte	0
 495 003f 05       		.uleb128 0x5
 496 0040 28       		.uleb128 0x28
 497 0041 00       		.byte	0
 498 0042 03       		.uleb128 0x3
 499 0043 0E       		.uleb128 0xe
 500 0044 1C       		.uleb128 0x1c
 501 0045 0B       		.uleb128 0xb
 502 0046 00       		.byte	0
 503 0047 00       		.byte	0
 504 0048 06       		.uleb128 0x6
 505 0049 16       		.uleb128 0x16
 506 004a 00       		.byte	0
 507 004b 03       		.uleb128 0x3
 508 004c 0E       		.uleb128 0xe
 509 004d 3A       		.uleb128 0x3a
 510 004e 0B       		.uleb128 0xb
 511 004f 3B       		.uleb128 0x3b
 512 0050 0B       		.uleb128 0xb
 513 0051 39       		.uleb128 0x39
 514 0052 0B       		.uleb128 0xb
 515 0053 49       		.uleb128 0x49
 516 0054 13       		.uleb128 0x13
 517 0055 00       		.byte	0
 518 0056 00       		.byte	0
 519 0057 07       		.uleb128 0x7
 520 0058 01       		.uleb128 0x1
 521 0059 01       		.byte	0x1
 522 005a 49       		.uleb128 0x49
 523 005b 13       		.uleb128 0x13
 524 005c 01       		.uleb128 0x1
 525 005d 13       		.uleb128 0x13
 526 005e 00       		.byte	0
 527 005f 00       		.byte	0
 528 0060 08       		.uleb128 0x8
 529 0061 21       		.uleb128 0x21
 530 0062 00       		.byte	0
 531 0063 49       		.uleb128 0x49
 532 0064 13       		.uleb128 0x13
 533 0065 2F       		.uleb128 0x2f
 534 0066 0B       		.uleb128 0xb
 535 0067 00       		.byte	0
 536 0068 00       		.byte	0
ARM GAS  /tmp/ccXFiNL9.s 			page 11


 537 0069 09       		.uleb128 0x9
 538 006a 0F       		.uleb128 0xf
 539 006b 00       		.byte	0
 540 006c 0B       		.uleb128 0xb
 541 006d 0B       		.uleb128 0xb
 542 006e 49       		.uleb128 0x49
 543 006f 13       		.uleb128 0x13
 544 0070 00       		.byte	0
 545 0071 00       		.byte	0
 546 0072 0A       		.uleb128 0xa
 547 0073 26       		.uleb128 0x26
 548 0074 00       		.byte	0
 549 0075 49       		.uleb128 0x49
 550 0076 13       		.uleb128 0x13
 551 0077 00       		.byte	0
 552 0078 00       		.byte	0
 553 0079 0B       		.uleb128 0xb
 554 007a 34       		.uleb128 0x34
 555 007b 00       		.byte	0
 556 007c 03       		.uleb128 0x3
 557 007d 0E       		.uleb128 0xe
 558 007e 3A       		.uleb128 0x3a
 559 007f 0B       		.uleb128 0xb
 560 0080 3B       		.uleb128 0x3b
 561 0081 0B       		.uleb128 0xb
 562 0082 39       		.uleb128 0x39
 563 0083 0B       		.uleb128 0xb
 564 0084 49       		.uleb128 0x49
 565 0085 13       		.uleb128 0x13
 566 0086 00       		.byte	0
 567 0087 00       		.byte	0
 568 0088 0C       		.uleb128 0xc
 569 0089 34       		.uleb128 0x34
 570 008a 00       		.byte	0
 571 008b 03       		.uleb128 0x3
 572 008c 0E       		.uleb128 0xe
 573 008d 3A       		.uleb128 0x3a
 574 008e 0B       		.uleb128 0xb
 575 008f 3B       		.uleb128 0x3b
 576 0090 0B       		.uleb128 0xb
 577 0091 39       		.uleb128 0x39
 578 0092 0B       		.uleb128 0xb
 579 0093 49       		.uleb128 0x49
 580 0094 13       		.uleb128 0x13
 581 0095 02       		.uleb128 0x2
 582 0096 0A       		.uleb128 0xa
 583 0097 00       		.byte	0
 584 0098 00       		.byte	0
 585 0099 0D       		.uleb128 0xd
 586 009a 2E       		.uleb128 0x2e
 587 009b 01       		.byte	0x1
 588 009c 3F       		.uleb128 0x3f
 589 009d 0C       		.uleb128 0xc
 590 009e 03       		.uleb128 0x3
 591 009f 0E       		.uleb128 0xe
 592 00a0 3A       		.uleb128 0x3a
 593 00a1 0B       		.uleb128 0xb
ARM GAS  /tmp/ccXFiNL9.s 			page 12


 594 00a2 3B       		.uleb128 0x3b
 595 00a3 0B       		.uleb128 0xb
 596 00a4 39       		.uleb128 0x39
 597 00a5 0B       		.uleb128 0xb
 598 00a6 27       		.uleb128 0x27
 599 00a7 0C       		.uleb128 0xc
 600 00a8 49       		.uleb128 0x49
 601 00a9 13       		.uleb128 0x13
 602 00aa 11       		.uleb128 0x11
 603 00ab 01       		.uleb128 0x1
 604 00ac 12       		.uleb128 0x12
 605 00ad 01       		.uleb128 0x1
 606 00ae 40       		.uleb128 0x40
 607 00af 0A       		.uleb128 0xa
 608 00b0 9742     		.uleb128 0x2117
 609 00b2 0C       		.uleb128 0xc
 610 00b3 01       		.uleb128 0x1
 611 00b4 13       		.uleb128 0x13
 612 00b5 00       		.byte	0
 613 00b6 00       		.byte	0
 614 00b7 0E       		.uleb128 0xe
 615 00b8 05       		.uleb128 0x5
 616 00b9 00       		.byte	0
 617 00ba 03       		.uleb128 0x3
 618 00bb 0E       		.uleb128 0xe
 619 00bc 3A       		.uleb128 0x3a
 620 00bd 0B       		.uleb128 0xb
 621 00be 3B       		.uleb128 0x3b
 622 00bf 0B       		.uleb128 0xb
 623 00c0 39       		.uleb128 0x39
 624 00c1 0B       		.uleb128 0xb
 625 00c2 49       		.uleb128 0x49
 626 00c3 13       		.uleb128 0x13
 627 00c4 02       		.uleb128 0x2
 628 00c5 0A       		.uleb128 0xa
 629 00c6 00       		.byte	0
 630 00c7 00       		.byte	0
 631 00c8 0F       		.uleb128 0xf
 632 00c9 05       		.uleb128 0x5
 633 00ca 00       		.byte	0
 634 00cb 03       		.uleb128 0x3
 635 00cc 08       		.uleb128 0x8
 636 00cd 3A       		.uleb128 0x3a
 637 00ce 0B       		.uleb128 0xb
 638 00cf 3B       		.uleb128 0x3b
 639 00d0 0B       		.uleb128 0xb
 640 00d1 39       		.uleb128 0x39
 641 00d2 0B       		.uleb128 0xb
 642 00d3 49       		.uleb128 0x49
 643 00d4 13       		.uleb128 0x13
 644 00d5 02       		.uleb128 0x2
 645 00d6 0A       		.uleb128 0xa
 646 00d7 00       		.byte	0
 647 00d8 00       		.byte	0
 648 00d9 10       		.uleb128 0x10
 649 00da 34       		.uleb128 0x34
 650 00db 00       		.byte	0
ARM GAS  /tmp/ccXFiNL9.s 			page 13


 651 00dc 03       		.uleb128 0x3
 652 00dd 08       		.uleb128 0x8
 653 00de 3A       		.uleb128 0x3a
 654 00df 0B       		.uleb128 0xb
 655 00e0 3B       		.uleb128 0x3b
 656 00e1 0B       		.uleb128 0xb
 657 00e2 39       		.uleb128 0x39
 658 00e3 0B       		.uleb128 0xb
 659 00e4 49       		.uleb128 0x49
 660 00e5 13       		.uleb128 0x13
 661 00e6 02       		.uleb128 0x2
 662 00e7 06       		.uleb128 0x6
 663 00e8 B742     		.uleb128 0x2137
 664 00ea 06       		.uleb128 0x6
 665 00eb 00       		.byte	0
 666 00ec 00       		.byte	0
 667 00ed 11       		.uleb128 0x11
 668 00ee 34       		.uleb128 0x34
 669 00ef 00       		.byte	0
 670 00f0 03       		.uleb128 0x3
 671 00f1 0E       		.uleb128 0xe
 672 00f2 3A       		.uleb128 0x3a
 673 00f3 0B       		.uleb128 0xb
 674 00f4 3B       		.uleb128 0x3b
 675 00f5 0B       		.uleb128 0xb
 676 00f6 39       		.uleb128 0x39
 677 00f7 0B       		.uleb128 0xb
 678 00f8 49       		.uleb128 0x49
 679 00f9 13       		.uleb128 0x13
 680 00fa 02       		.uleb128 0x2
 681 00fb 06       		.uleb128 0x6
 682 00fc B742     		.uleb128 0x2137
 683 00fe 06       		.uleb128 0x6
 684 00ff 00       		.byte	0
 685 0100 00       		.byte	0
 686 0101 12       		.uleb128 0x12
 687 0102 24       		.uleb128 0x24
 688 0103 00       		.byte	0
 689 0104 0B       		.uleb128 0xb
 690 0105 0B       		.uleb128 0xb
 691 0106 3E       		.uleb128 0x3e
 692 0107 0B       		.uleb128 0xb
 693 0108 03       		.uleb128 0x3
 694 0109 08       		.uleb128 0x8
 695 010a 00       		.byte	0
 696 010b 00       		.byte	0
 697 010c 13       		.uleb128 0x13
 698 010d 2E       		.uleb128 0x2e
 699 010e 01       		.byte	0x1
 700 010f 3F       		.uleb128 0x3f
 701 0110 0C       		.uleb128 0xc
 702 0111 03       		.uleb128 0x3
 703 0112 0E       		.uleb128 0xe
 704 0113 3A       		.uleb128 0x3a
 705 0114 0B       		.uleb128 0xb
 706 0115 3B       		.uleb128 0x3b
 707 0116 0B       		.uleb128 0xb
ARM GAS  /tmp/ccXFiNL9.s 			page 14


 708 0117 39       		.uleb128 0x39
 709 0118 0B       		.uleb128 0xb
 710 0119 27       		.uleb128 0x27
 711 011a 0C       		.uleb128 0xc
 712 011b 11       		.uleb128 0x11
 713 011c 01       		.uleb128 0x1
 714 011d 12       		.uleb128 0x12
 715 011e 01       		.uleb128 0x1
 716 011f 40       		.uleb128 0x40
 717 0120 06       		.uleb128 0x6
 718 0121 9742     		.uleb128 0x2117
 719 0123 0C       		.uleb128 0xc
 720 0124 01       		.uleb128 0x1
 721 0125 13       		.uleb128 0x13
 722 0126 00       		.byte	0
 723 0127 00       		.byte	0
 724 0128 14       		.uleb128 0x14
 725 0129 05       		.uleb128 0x5
 726 012a 00       		.byte	0
 727 012b 03       		.uleb128 0x3
 728 012c 0E       		.uleb128 0xe
 729 012d 3A       		.uleb128 0x3a
 730 012e 0B       		.uleb128 0xb
 731 012f 3B       		.uleb128 0x3b
 732 0130 0B       		.uleb128 0xb
 733 0131 39       		.uleb128 0x39
 734 0132 0B       		.uleb128 0xb
 735 0133 49       		.uleb128 0x49
 736 0134 13       		.uleb128 0x13
 737 0135 02       		.uleb128 0x2
 738 0136 06       		.uleb128 0x6
 739 0137 B742     		.uleb128 0x2137
 740 0139 06       		.uleb128 0x6
 741 013a 00       		.byte	0
 742 013b 00       		.byte	0
 743 013c 00       		.byte	0
 744              		.section	.debug_loc,"",%progbits
 745              	.Ldebug_loc0:
 746              	.LVUS2:
 747 0000 04       		.uleb128 .LVU22
 748 0001 00       		.uleb128 .LVU25
 749 0002 00       		.uleb128 .LVU25
 750 0003 00       		.uleb128 0
 751              	.LLST2:
 752 0004 00000000 		.4byte	.LVL3
 753 0008 0A000000 		.4byte	.LVL4
 754 000c 0200     		.2byte	0x2
 755 000e 30       		.byte	0x30
 756 000f 9F       		.byte	0x9f
 757 0010 0A000000 		.4byte	.LVL4
 758 0014 3C000000 		.4byte	.LFE1
 759 0018 0100     		.2byte	0x1
 760 001a 53       		.byte	0x53
 761 001b 00000000 		.4byte	0
 762 001f 00000000 		.4byte	0
 763              	.LVUS3:
 764 0023 03       		.uleb128 .LVU21
ARM GAS  /tmp/ccXFiNL9.s 			page 15


 765 0024 00       		.uleb128 .LVU25
 766 0025 00       		.uleb128 .LVU25
 767 0026 00       		.uleb128 .LVU34
 768              	.LLST3:
 769 0027 00000000 		.4byte	.LVL3
 770 002b 0A000000 		.4byte	.LVL4
 771 002f 0300     		.2byte	0x3
 772 0031 09       		.byte	0x9
 773 0032 FF       		.byte	0xff
 774 0033 9F       		.byte	0x9f
 775 0034 0A000000 		.4byte	.LVL4
 776 0038 32000000 		.4byte	.LVL7
 777 003c 0100     		.2byte	0x1
 778 003e 50       		.byte	0x50
 779 003f 00000000 		.4byte	0
 780 0043 00000000 		.4byte	0
 781              	.LLST0:
 782 0047 00000000 		.4byte	.LFB0
 783 004b 08000000 		.4byte	.LCFI0
 784 004f 0200     		.2byte	0x2
 785 0051 7D       		.byte	0x7d
 786 0052 00       		.sleb128 0
 787 0053 08000000 		.4byte	.LCFI0
 788 0057 18000000 		.4byte	.LCFI1
 789 005b 0200     		.2byte	0x2
 790 005d 7D       		.byte	0x7d
 791 005e 04       		.sleb128 4
 792 005f 18000000 		.4byte	.LCFI1
 793 0063 2C000000 		.4byte	.LFE0
 794 0067 0200     		.2byte	0x2
 795 0069 7D       		.byte	0x7d
 796 006a 00       		.sleb128 0
 797 006b 00000000 		.4byte	0
 798 006f 00000000 		.4byte	0
 799              	.LVUS1:
 800 0073 00       		.uleb128 0
 801 0074 00       		.uleb128 .LVU12
 802 0075 00       		.uleb128 .LVU12
 803 0076 00       		.uleb128 .LVU17
 804 0077 00       		.uleb128 .LVU17
 805 0078 00       		.uleb128 0
 806              	.LLST1:
 807 0079 00000000 		.4byte	.LVL0
 808 007d 1C000000 		.4byte	.LVL1
 809 0081 0100     		.2byte	0x1
 810 0083 52       		.byte	0x52
 811 0084 1C000000 		.4byte	.LVL1
 812 0088 22000000 		.4byte	.LVL2
 813 008c 0A00     		.2byte	0xa
 814 008e F3       		.byte	0xf3
 815 008f 03       		.uleb128 0x3
 816 0090 F5       		.byte	0xf5
 817 0091 02       		.uleb128 0x2
 818 0092 2D       		.uleb128 0x2d
 819 0093 F7       		.byte	0xf7
 820 0094 34       		.uleb128 0x34
 821 0095 F7       		.byte	0xf7
ARM GAS  /tmp/ccXFiNL9.s 			page 16


 822 0096 00       		.uleb128 0
 823 0097 9F       		.byte	0x9f
 824 0098 22000000 		.4byte	.LVL2
 825 009c 2C000000 		.4byte	.LFE0
 826 00a0 0100     		.2byte	0x1
 827 00a2 52       		.byte	0x52
 828 00a3 00000000 		.4byte	0
 829 00a7 00000000 		.4byte	0
 830              		.section	.debug_aranges,"",%progbits
 831 0000 24000000 		.4byte	0x24
 832 0004 0200     		.2byte	0x2
 833 0006 00000000 		.4byte	.Ldebug_info0
 834 000a 04       		.byte	0x4
 835 000b 00       		.byte	0
 836 000c 0000     		.2byte	0
 837 000e 0000     		.2byte	0
 838 0010 00000000 		.4byte	.LFB0
 839 0014 2C000000 		.4byte	.LFE0-.LFB0
 840 0018 00000000 		.4byte	.LFB1
 841 001c 3C000000 		.4byte	.LFE1-.LFB1
 842 0020 00000000 		.4byte	0
 843 0024 00000000 		.4byte	0
 844              		.section	.debug_ranges,"",%progbits
 845              	.Ldebug_ranges0:
 846 0000 00000000 		.4byte	.LFB0
 847 0004 2C000000 		.4byte	.LFE0
 848 0008 00000000 		.4byte	.LFB1
 849 000c 3C000000 		.4byte	.LFE1
 850 0010 00000000 		.4byte	0
 851 0014 00000000 		.4byte	0
 852              		.section	.debug_macro,"",%progbits
 853              	.Ldebug_macro0:
 854 0000 0400     		.2byte	0x4
 855 0002 02       		.byte	0x2
 856 0003 00000000 		.4byte	.Ldebug_line0
 857 0007 07       		.byte	0x7
 858 0008 00000000 		.4byte	.Ldebug_macro2
 859 000c 03       		.byte	0x3
 860 000d 00       		.uleb128 0
 861 000e 01       		.uleb128 0x1
 862 000f 03       		.byte	0x3
 863 0010 01       		.uleb128 0x1
 864 0011 02       		.uleb128 0x2
 865 0012 07       		.byte	0x7
 866 0013 00000000 		.4byte	.Ldebug_macro3
 867 0017 04       		.byte	0x4
 868 0018 04       		.byte	0x4
 869 0019 00       		.byte	0
 870              		.section	.debug_macro,"G",%progbits,wm4.0.579c843c69bde93f83ac1a11d59e64c7,comdat
 871              	.Ldebug_macro2:
 872 0000 0400     		.2byte	0x4
 873 0002 00       		.byte	0
 874 0003 05       		.byte	0x5
 875 0004 00       		.uleb128 0
 876 0005 69190000 		.4byte	.LASF0
 877 0009 05       		.byte	0x5
 878 000a 00       		.uleb128 0
ARM GAS  /tmp/ccXFiNL9.s 			page 17


 879 000b 70250000 		.4byte	.LASF1
 880 000f 05       		.byte	0x5
 881 0010 00       		.uleb128 0
 882 0011 491B0000 		.4byte	.LASF2
 883 0015 05       		.byte	0x5
 884 0016 00       		.uleb128 0
 885 0017 C4060000 		.4byte	.LASF3
 886 001b 05       		.byte	0x5
 887 001c 00       		.uleb128 0
 888 001d E2250000 		.4byte	.LASF4
 889 0021 05       		.byte	0x5
 890 0022 00       		.uleb128 0
 891 0023 090C0000 		.4byte	.LASF5
 892 0027 05       		.byte	0x5
 893 0028 00       		.uleb128 0
 894 0029 34110000 		.4byte	.LASF6
 895 002d 05       		.byte	0x5
 896 002e 00       		.uleb128 0
 897 002f 7B1A0000 		.4byte	.LASF7
 898 0033 05       		.byte	0x5
 899 0034 00       		.uleb128 0
 900 0035 CE0A0000 		.4byte	.LASF8
 901 0039 05       		.byte	0x5
 902 003a 00       		.uleb128 0
 903 003b 74070000 		.4byte	.LASF9
 904 003f 05       		.byte	0x5
 905 0040 00       		.uleb128 0
 906 0041 D7050000 		.4byte	.LASF10
 907 0045 05       		.byte	0x5
 908 0046 00       		.uleb128 0
 909 0047 3E190000 		.4byte	.LASF11
 910 004b 05       		.byte	0x5
 911 004c 00       		.uleb128 0
 912 004d 10050000 		.4byte	.LASF12
 913 0051 05       		.byte	0x5
 914 0052 00       		.uleb128 0
 915 0053 AE260000 		.4byte	.LASF13
 916 0057 05       		.byte	0x5
 917 0058 00       		.uleb128 0
 918 0059 9C190000 		.4byte	.LASF14
 919 005d 05       		.byte	0x5
 920 005e 00       		.uleb128 0
 921 005f FA100000 		.4byte	.LASF15
 922 0063 05       		.byte	0x5
 923 0064 00       		.uleb128 0
 924 0065 E4170000 		.4byte	.LASF16
 925 0069 05       		.byte	0x5
 926 006a 00       		.uleb128 0
 927 006b 2B2A0000 		.4byte	.LASF17
 928 006f 05       		.byte	0x5
 929 0070 00       		.uleb128 0
 930 0071 89050000 		.4byte	.LASF18
 931 0075 05       		.byte	0x5
 932 0076 00       		.uleb128 0
 933 0077 9A220000 		.4byte	.LASF19
 934 007b 05       		.byte	0x5
 935 007c 00       		.uleb128 0
ARM GAS  /tmp/ccXFiNL9.s 			page 18


 936 007d EA050000 		.4byte	.LASF20
 937 0081 05       		.byte	0x5
 938 0082 00       		.uleb128 0
 939 0083 DB0F0000 		.4byte	.LASF21
 940 0087 05       		.byte	0x5
 941 0088 00       		.uleb128 0
 942 0089 671A0000 		.4byte	.LASF22
 943 008d 05       		.byte	0x5
 944 008e 00       		.uleb128 0
 945 008f E5030000 		.4byte	.LASF23
 946 0093 05       		.byte	0x5
 947 0094 00       		.uleb128 0
 948 0095 AE030000 		.4byte	.LASF24
 949 0099 05       		.byte	0x5
 950 009a 00       		.uleb128 0
 951 009b 66170000 		.4byte	.LASF25
 952 009f 05       		.byte	0x5
 953 00a0 00       		.uleb128 0
 954 00a1 31100000 		.4byte	.LASF26
 955 00a5 05       		.byte	0x5
 956 00a6 00       		.uleb128 0
 957 00a7 96100000 		.4byte	.LASF27
 958 00ab 05       		.byte	0x5
 959 00ac 00       		.uleb128 0
 960 00ad 33040000 		.4byte	.LASF28
 961 00b1 05       		.byte	0x5
 962 00b2 00       		.uleb128 0
 963 00b3 D41E0000 		.4byte	.LASF29
 964 00b7 05       		.byte	0x5
 965 00b8 00       		.uleb128 0
 966 00b9 63060000 		.4byte	.LASF30
 967 00bd 05       		.byte	0x5
 968 00be 00       		.uleb128 0
 969 00bf 731C0000 		.4byte	.LASF31
 970 00c3 05       		.byte	0x5
 971 00c4 00       		.uleb128 0
 972 00c5 B0230000 		.4byte	.LASF32
 973 00c9 05       		.byte	0x5
 974 00ca 00       		.uleb128 0
 975 00cb 6A2D0000 		.4byte	.LASF33
 976 00cf 05       		.byte	0x5
 977 00d0 00       		.uleb128 0
 978 00d1 36280000 		.4byte	.LASF34
 979 00d5 05       		.byte	0x5
 980 00d6 00       		.uleb128 0
 981 00d7 BE280000 		.4byte	.LASF35
 982 00db 05       		.byte	0x5
 983 00dc 00       		.uleb128 0
 984 00dd 23050000 		.4byte	.LASF36
 985 00e1 05       		.byte	0x5
 986 00e2 00       		.uleb128 0
 987 00e3 0D0E0000 		.4byte	.LASF37
 988 00e7 05       		.byte	0x5
 989 00e8 00       		.uleb128 0
 990 00e9 D7190000 		.4byte	.LASF38
 991 00ed 05       		.byte	0x5
 992 00ee 00       		.uleb128 0
ARM GAS  /tmp/ccXFiNL9.s 			page 19


 993 00ef 3C2A0000 		.4byte	.LASF39
 994 00f3 05       		.byte	0x5
 995 00f4 00       		.uleb128 0
 996 00f5 FB260000 		.4byte	.LASF40
 997 00f9 05       		.byte	0x5
 998 00fa 00       		.uleb128 0
 999 00fb C2030000 		.4byte	.LASF41
 1000 00ff 05       		.byte	0x5
 1001 0100 00       		.uleb128 0
 1002 0101 701D0000 		.4byte	.LASF42
 1003 0105 05       		.byte	0x5
 1004 0106 00       		.uleb128 0
 1005 0107 532E0000 		.4byte	.LASF43
 1006 010b 05       		.byte	0x5
 1007 010c 00       		.uleb128 0
 1008 010d 66210000 		.4byte	.LASF44
 1009 0111 05       		.byte	0x5
 1010 0112 00       		.uleb128 0
 1011 0113 4C050000 		.4byte	.LASF45
 1012 0117 05       		.byte	0x5
 1013 0118 00       		.uleb128 0
 1014 0119 F71F0000 		.4byte	.LASF46
 1015 011d 05       		.byte	0x5
 1016 011e 00       		.uleb128 0
 1017 011f CC1A0000 		.4byte	.LASF47
 1018 0123 05       		.byte	0x5
 1019 0124 00       		.uleb128 0
 1020 0125 CA220000 		.4byte	.LASF48
 1021 0129 05       		.byte	0x5
 1022 012a 00       		.uleb128 0
 1023 012b C5110000 		.4byte	.LASF49
 1024 012f 05       		.byte	0x5
 1025 0130 00       		.uleb128 0
 1026 0131 73230000 		.4byte	.LASF50
 1027 0135 05       		.byte	0x5
 1028 0136 00       		.uleb128 0
 1029 0137 782B0000 		.4byte	.LASF51
 1030 013b 05       		.byte	0x5
 1031 013c 00       		.uleb128 0
 1032 013d 15060000 		.4byte	.LASF52
 1033 0141 05       		.byte	0x5
 1034 0142 00       		.uleb128 0
 1035 0143 F7150000 		.4byte	.LASF53
 1036 0147 05       		.byte	0x5
 1037 0148 00       		.uleb128 0
 1038 0149 800C0000 		.4byte	.LASF54
 1039 014d 05       		.byte	0x5
 1040 014e 00       		.uleb128 0
 1041 014f 32230000 		.4byte	.LASF55
 1042 0153 05       		.byte	0x5
 1043 0154 00       		.uleb128 0
 1044 0155 13280000 		.4byte	.LASF56
 1045 0159 05       		.byte	0x5
 1046 015a 00       		.uleb128 0
 1047 015b 79120000 		.4byte	.LASF57
 1048 015f 05       		.byte	0x5
 1049 0160 00       		.uleb128 0
ARM GAS  /tmp/ccXFiNL9.s 			page 20


 1050 0161 FB1D0000 		.4byte	.LASF58
 1051 0165 05       		.byte	0x5
 1052 0166 00       		.uleb128 0
 1053 0167 CC040000 		.4byte	.LASF59
 1054 016b 05       		.byte	0x5
 1055 016c 00       		.uleb128 0
 1056 016d 740D0000 		.4byte	.LASF60
 1057 0171 05       		.byte	0x5
 1058 0172 00       		.uleb128 0
 1059 0173 95110000 		.4byte	.LASF61
 1060 0177 05       		.byte	0x5
 1061 0178 00       		.uleb128 0
 1062 0179 FB290000 		.4byte	.LASF62
 1063 017d 05       		.byte	0x5
 1064 017e 00       		.uleb128 0
 1065 017f 8D080000 		.4byte	.LASF63
 1066 0183 05       		.byte	0x5
 1067 0184 00       		.uleb128 0
 1068 0185 88000000 		.4byte	.LASF64
 1069 0189 05       		.byte	0x5
 1070 018a 00       		.uleb128 0
 1071 018b CF130000 		.4byte	.LASF65
 1072 018f 05       		.byte	0x5
 1073 0190 00       		.uleb128 0
 1074 0191 51200000 		.4byte	.LASF66
 1075 0195 05       		.byte	0x5
 1076 0196 00       		.uleb128 0
 1077 0197 C1260000 		.4byte	.LASF67
 1078 019b 05       		.byte	0x5
 1079 019c 00       		.uleb128 0
 1080 019d 96270000 		.4byte	.LASF68
 1081 01a1 05       		.byte	0x5
 1082 01a2 00       		.uleb128 0
 1083 01a3 85090000 		.4byte	.LASF69
 1084 01a7 05       		.byte	0x5
 1085 01a8 00       		.uleb128 0
 1086 01a9 46140000 		.4byte	.LASF70
 1087 01ad 05       		.byte	0x5
 1088 01ae 00       		.uleb128 0
 1089 01af F1060000 		.4byte	.LASF71
 1090 01b3 05       		.byte	0x5
 1091 01b4 00       		.uleb128 0
 1092 01b5 B41E0000 		.4byte	.LASF72
 1093 01b9 05       		.byte	0x5
 1094 01ba 00       		.uleb128 0
 1095 01bb F9040000 		.4byte	.LASF73
 1096 01bf 05       		.byte	0x5
 1097 01c0 00       		.uleb128 0
 1098 01c1 F2190000 		.4byte	.LASF74
 1099 01c5 05       		.byte	0x5
 1100 01c6 00       		.uleb128 0
 1101 01c7 52120000 		.4byte	.LASF75
 1102 01cb 05       		.byte	0x5
 1103 01cc 00       		.uleb128 0
 1104 01cd 80220000 		.4byte	.LASF76
 1105 01d1 05       		.byte	0x5
 1106 01d2 00       		.uleb128 0
ARM GAS  /tmp/ccXFiNL9.s 			page 21


 1107 01d3 CB200000 		.4byte	.LASF77
 1108 01d7 05       		.byte	0x5
 1109 01d8 00       		.uleb128 0
 1110 01d9 80210000 		.4byte	.LASF78
 1111 01dd 05       		.byte	0x5
 1112 01de 00       		.uleb128 0
 1113 01df CE020000 		.4byte	.LASF79
 1114 01e3 05       		.byte	0x5
 1115 01e4 00       		.uleb128 0
 1116 01e5 750B0000 		.4byte	.LASF80
 1117 01e9 05       		.byte	0x5
 1118 01ea 00       		.uleb128 0
 1119 01eb 9E070000 		.4byte	.LASF81
 1120 01ef 05       		.byte	0x5
 1121 01f0 00       		.uleb128 0
 1122 01f1 341A0000 		.4byte	.LASF82
 1123 01f5 05       		.byte	0x5
 1124 01f6 00       		.uleb128 0
 1125 01f7 E7220000 		.4byte	.LASF83
 1126 01fb 05       		.byte	0x5
 1127 01fc 00       		.uleb128 0
 1128 01fd A4240000 		.4byte	.LASF84
 1129 0201 05       		.byte	0x5
 1130 0202 00       		.uleb128 0
 1131 0203 4C1D0000 		.4byte	.LASF85
 1132 0207 05       		.byte	0x5
 1133 0208 00       		.uleb128 0
 1134 0209 DF010000 		.4byte	.LASF86
 1135 020d 05       		.byte	0x5
 1136 020e 00       		.uleb128 0
 1137 020f F2110000 		.4byte	.LASF87
 1138 0213 05       		.byte	0x5
 1139 0214 00       		.uleb128 0
 1140 0215 801F0000 		.4byte	.LASF88
 1141 0219 05       		.byte	0x5
 1142 021a 00       		.uleb128 0
 1143 021b 3E240000 		.4byte	.LASF89
 1144 021f 05       		.byte	0x5
 1145 0220 00       		.uleb128 0
 1146 0221 BE1C0000 		.4byte	.LASF90
 1147 0225 05       		.byte	0x5
 1148 0226 00       		.uleb128 0
 1149 0227 B90E0000 		.4byte	.LASF91
 1150 022b 05       		.byte	0x5
 1151 022c 00       		.uleb128 0
 1152 022d 5A2A0000 		.4byte	.LASF92
 1153 0231 05       		.byte	0x5
 1154 0232 00       		.uleb128 0
 1155 0233 2D2E0000 		.4byte	.LASF93
 1156 0237 05       		.byte	0x5
 1157 0238 00       		.uleb128 0
 1158 0239 4B060000 		.4byte	.LASF94
 1159 023d 05       		.byte	0x5
 1160 023e 00       		.uleb128 0
 1161 023f BE150000 		.4byte	.LASF95
 1162 0243 05       		.byte	0x5
 1163 0244 00       		.uleb128 0
ARM GAS  /tmp/ccXFiNL9.s 			page 22


 1164 0245 25000000 		.4byte	.LASF96
 1165 0249 05       		.byte	0x5
 1166 024a 00       		.uleb128 0
 1167 024b E21C0000 		.4byte	.LASF97
 1168 024f 05       		.byte	0x5
 1169 0250 00       		.uleb128 0
 1170 0251 771E0000 		.4byte	.LASF98
 1171 0255 05       		.byte	0x5
 1172 0256 00       		.uleb128 0
 1173 0257 4F0C0000 		.4byte	.LASF99
 1174 025b 05       		.byte	0x5
 1175 025c 00       		.uleb128 0
 1176 025d 0B1A0000 		.4byte	.LASF100
 1177 0261 05       		.byte	0x5
 1178 0262 00       		.uleb128 0
 1179 0263 5D1F0000 		.4byte	.LASF101
 1180 0267 05       		.byte	0x5
 1181 0268 00       		.uleb128 0
 1182 0269 2C0C0000 		.4byte	.LASF102
 1183 026d 05       		.byte	0x5
 1184 026e 00       		.uleb128 0
 1185 026f 81150000 		.4byte	.LASF103
 1186 0273 05       		.byte	0x5
 1187 0274 00       		.uleb128 0
 1188 0275 94150000 		.4byte	.LASF104
 1189 0279 05       		.byte	0x5
 1190 027a 00       		.uleb128 0
 1191 027b E61B0000 		.4byte	.LASF105
 1192 027f 05       		.byte	0x5
 1193 0280 00       		.uleb128 0
 1194 0281 B5180000 		.4byte	.LASF106
 1195 0285 05       		.byte	0x5
 1196 0286 00       		.uleb128 0
 1197 0287 FD050000 		.4byte	.LASF107
 1198 028b 05       		.byte	0x5
 1199 028c 00       		.uleb128 0
 1200 028d AF080000 		.4byte	.LASF108
 1201 0291 05       		.byte	0x5
 1202 0292 00       		.uleb128 0
 1203 0293 5A150000 		.4byte	.LASF109
 1204 0297 05       		.byte	0x5
 1205 0298 00       		.uleb128 0
 1206 0299 D6060000 		.4byte	.LASF110
 1207 029d 05       		.byte	0x5
 1208 029e 00       		.uleb128 0
 1209 029f 8A180000 		.4byte	.LASF111
 1210 02a3 05       		.byte	0x5
 1211 02a4 00       		.uleb128 0
 1212 02a5 EE080000 		.4byte	.LASF112
 1213 02a9 05       		.byte	0x5
 1214 02aa 00       		.uleb128 0
 1215 02ab 0D2E0000 		.4byte	.LASF113
 1216 02af 05       		.byte	0x5
 1217 02b0 00       		.uleb128 0
 1218 02b1 D42C0000 		.4byte	.LASF114
 1219 02b5 05       		.byte	0x5
 1220 02b6 00       		.uleb128 0
ARM GAS  /tmp/ccXFiNL9.s 			page 23


 1221 02b7 FA270000 		.4byte	.LASF115
 1222 02bb 05       		.byte	0x5
 1223 02bc 00       		.uleb128 0
 1224 02bd D8140000 		.4byte	.LASF116
 1225 02c1 05       		.byte	0x5
 1226 02c2 00       		.uleb128 0
 1227 02c3 36220000 		.4byte	.LASF117
 1228 02c7 05       		.byte	0x5
 1229 02c8 00       		.uleb128 0
 1230 02c9 DE1F0000 		.4byte	.LASF118
 1231 02cd 05       		.byte	0x5
 1232 02ce 00       		.uleb128 0
 1233 02cf F9020000 		.4byte	.LASF119
 1234 02d3 05       		.byte	0x5
 1235 02d4 00       		.uleb128 0
 1236 02d5 5B010000 		.4byte	.LASF120
 1237 02d9 05       		.byte	0x5
 1238 02da 00       		.uleb128 0
 1239 02db D72E0000 		.4byte	.LASF121
 1240 02df 05       		.byte	0x5
 1241 02e0 00       		.uleb128 0
 1242 02e1 9E030000 		.4byte	.LASF122
 1243 02e5 05       		.byte	0x5
 1244 02e6 00       		.uleb128 0
 1245 02e7 05210000 		.4byte	.LASF123
 1246 02eb 05       		.byte	0x5
 1247 02ec 00       		.uleb128 0
 1248 02ed EE0F0000 		.4byte	.LASF124
 1249 02f1 05       		.byte	0x5
 1250 02f2 00       		.uleb128 0
 1251 02f3 C50C0000 		.4byte	.LASF125
 1252 02f7 05       		.byte	0x5
 1253 02f8 00       		.uleb128 0
 1254 02f9 D6240000 		.4byte	.LASF126
 1255 02fd 05       		.byte	0x5
 1256 02fe 00       		.uleb128 0
 1257 02ff 16040000 		.4byte	.LASF127
 1258 0303 05       		.byte	0x5
 1259 0304 00       		.uleb128 0
 1260 0305 672C0000 		.4byte	.LASF128
 1261 0309 05       		.byte	0x5
 1262 030a 00       		.uleb128 0
 1263 030b 55230000 		.4byte	.LASF129
 1264 030f 05       		.byte	0x5
 1265 0310 00       		.uleb128 0
 1266 0311 E5000000 		.4byte	.LASF130
 1267 0315 05       		.byte	0x5
 1268 0316 00       		.uleb128 0
 1269 0317 02190000 		.4byte	.LASF131
 1270 031b 05       		.byte	0x5
 1271 031c 00       		.uleb128 0
 1272 031d AF190000 		.4byte	.LASF132
 1273 0321 05       		.byte	0x5
 1274 0322 00       		.uleb128 0
 1275 0323 4F0A0000 		.4byte	.LASF133
 1276 0327 05       		.byte	0x5
 1277 0328 00       		.uleb128 0
ARM GAS  /tmp/ccXFiNL9.s 			page 24


 1278 0329 702F0000 		.4byte	.LASF134
 1279 032d 05       		.byte	0x5
 1280 032e 00       		.uleb128 0
 1281 032f 77100000 		.4byte	.LASF135
 1282 0333 05       		.byte	0x5
 1283 0334 00       		.uleb128 0
 1284 0335 AF130000 		.4byte	.LASF136
 1285 0339 05       		.byte	0x5
 1286 033a 00       		.uleb128 0
 1287 033b 03220000 		.4byte	.LASF137
 1288 033f 05       		.byte	0x5
 1289 0340 00       		.uleb128 0
 1290 0341 D9210000 		.4byte	.LASF138
 1291 0345 05       		.byte	0x5
 1292 0346 00       		.uleb128 0
 1293 0347 F4250000 		.4byte	.LASF139
 1294 034b 05       		.byte	0x5
 1295 034c 00       		.uleb128 0
 1296 034d 98170000 		.4byte	.LASF140
 1297 0351 05       		.byte	0x5
 1298 0352 00       		.uleb128 0
 1299 0353 392D0000 		.4byte	.LASF141
 1300 0357 05       		.byte	0x5
 1301 0358 00       		.uleb128 0
 1302 0359 470B0000 		.4byte	.LASF142
 1303 035d 05       		.byte	0x5
 1304 035e 00       		.uleb128 0
 1305 035f CE1B0000 		.4byte	.LASF143
 1306 0363 05       		.byte	0x5
 1307 0364 00       		.uleb128 0
 1308 0365 AA140000 		.4byte	.LASF144
 1309 0369 05       		.byte	0x5
 1310 036a 00       		.uleb128 0
 1311 036b AE290000 		.4byte	.LASF145
 1312 036f 05       		.byte	0x5
 1313 0370 00       		.uleb128 0
 1314 0371 BA270000 		.4byte	.LASF146
 1315 0375 05       		.byte	0x5
 1316 0376 00       		.uleb128 0
 1317 0377 F00C0000 		.4byte	.LASF147
 1318 037b 05       		.byte	0x5
 1319 037c 00       		.uleb128 0
 1320 037d 36130000 		.4byte	.LASF148
 1321 0381 05       		.byte	0x5
 1322 0382 00       		.uleb128 0
 1323 0383 8E0A0000 		.4byte	.LASF149
 1324 0387 05       		.byte	0x5
 1325 0388 00       		.uleb128 0
 1326 0389 862C0000 		.4byte	.LASF150
 1327 038d 05       		.byte	0x5
 1328 038e 00       		.uleb128 0
 1329 038f 3D290000 		.4byte	.LASF151
 1330 0393 05       		.byte	0x5
 1331 0394 00       		.uleb128 0
 1332 0395 9A260000 		.4byte	.LASF152
 1333 0399 05       		.byte	0x5
 1334 039a 00       		.uleb128 0
ARM GAS  /tmp/ccXFiNL9.s 			page 25


 1335 039b A2120000 		.4byte	.LASF153
 1336 039f 05       		.byte	0x5
 1337 03a0 00       		.uleb128 0
 1338 03a1 291F0000 		.4byte	.LASF154
 1339 03a5 05       		.byte	0x5
 1340 03a6 00       		.uleb128 0
 1341 03a7 72280000 		.4byte	.LASF155
 1342 03ab 05       		.byte	0x5
 1343 03ac 00       		.uleb128 0
 1344 03ad FD1A0000 		.4byte	.LASF156
 1345 03b1 05       		.byte	0x5
 1346 03b2 00       		.uleb128 0
 1347 03b3 7E160000 		.4byte	.LASF157
 1348 03b7 05       		.byte	0x5
 1349 03b8 00       		.uleb128 0
 1350 03b9 0B230000 		.4byte	.LASF158
 1351 03bd 05       		.byte	0x5
 1352 03be 00       		.uleb128 0
 1353 03bf D01D0000 		.4byte	.LASF159
 1354 03c3 05       		.byte	0x5
 1355 03c4 00       		.uleb128 0
 1356 03c5 5B2F0000 		.4byte	.LASF160
 1357 03c9 05       		.byte	0x5
 1358 03ca 00       		.uleb128 0
 1359 03cb 29080000 		.4byte	.LASF161
 1360 03cf 05       		.byte	0x5
 1361 03d0 00       		.uleb128 0
 1362 03d1 132A0000 		.4byte	.LASF162
 1363 03d5 05       		.byte	0x5
 1364 03d6 00       		.uleb128 0
 1365 03d7 770A0000 		.4byte	.LASF163
 1366 03db 05       		.byte	0x5
 1367 03dc 00       		.uleb128 0
 1368 03dd 56290000 		.4byte	.LASF164
 1369 03e1 05       		.byte	0x5
 1370 03e2 00       		.uleb128 0
 1371 03e3 B8040000 		.4byte	.LASF165
 1372 03e7 05       		.byte	0x5
 1373 03e8 00       		.uleb128 0
 1374 03e9 2C160000 		.4byte	.LASF166
 1375 03ed 05       		.byte	0x5
 1376 03ee 00       		.uleb128 0
 1377 03ef C7010000 		.4byte	.LASF167
 1378 03f3 05       		.byte	0x5
 1379 03f4 00       		.uleb128 0
 1380 03f5 F1130000 		.4byte	.LASF168
 1381 03f9 05       		.byte	0x5
 1382 03fa 00       		.uleb128 0
 1383 03fb 87190000 		.4byte	.LASF169
 1384 03ff 05       		.byte	0x5
 1385 0400 00       		.uleb128 0
 1386 0401 BA2B0000 		.4byte	.LASF170
 1387 0405 05       		.byte	0x5
 1388 0406 00       		.uleb128 0
 1389 0407 882F0000 		.4byte	.LASF171
 1390 040b 05       		.byte	0x5
 1391 040c 00       		.uleb128 0
ARM GAS  /tmp/ccXFiNL9.s 			page 26


 1392 040d 88020000 		.4byte	.LASF172
 1393 0411 05       		.byte	0x5
 1394 0412 00       		.uleb128 0
 1395 0413 51030000 		.4byte	.LASF173
 1396 0417 05       		.byte	0x5
 1397 0418 00       		.uleb128 0
 1398 0419 290E0000 		.4byte	.LASF174
 1399 041d 05       		.byte	0x5
 1400 041e 00       		.uleb128 0
 1401 041f 9C0A0000 		.4byte	.LASF175
 1402 0423 05       		.byte	0x5
 1403 0424 00       		.uleb128 0
 1404 0425 74140000 		.4byte	.LASF176
 1405 0429 05       		.byte	0x5
 1406 042a 00       		.uleb128 0
 1407 042b 552D0000 		.4byte	.LASF177
 1408 042f 05       		.byte	0x5
 1409 0430 00       		.uleb128 0
 1410 0431 CF290000 		.4byte	.LASF178
 1411 0435 05       		.byte	0x5
 1412 0436 00       		.uleb128 0
 1413 0437 2A0D0000 		.4byte	.LASF179
 1414 043b 05       		.byte	0x5
 1415 043c 00       		.uleb128 0
 1416 043d F7280000 		.4byte	.LASF180
 1417 0441 05       		.byte	0x5
 1418 0442 00       		.uleb128 0
 1419 0443 20180000 		.4byte	.LASF181
 1420 0447 05       		.byte	0x5
 1421 0448 00       		.uleb128 0
 1422 0449 79050000 		.4byte	.LASF182
 1423 044d 05       		.byte	0x5
 1424 044e 00       		.uleb128 0
 1425 044f 021C0000 		.4byte	.LASF183
 1426 0453 05       		.byte	0x5
 1427 0454 00       		.uleb128 0
 1428 0455 95230000 		.4byte	.LASF184
 1429 0459 05       		.byte	0x5
 1430 045a 00       		.uleb128 0
 1431 045b 88200000 		.4byte	.LASF185
 1432 045f 05       		.byte	0x5
 1433 0460 00       		.uleb128 0
 1434 0461 072D0000 		.4byte	.LASF186
 1435 0465 05       		.byte	0x5
 1436 0466 00       		.uleb128 0
 1437 0467 BC2C0000 		.4byte	.LASF187
 1438 046b 05       		.byte	0x5
 1439 046c 00       		.uleb128 0
 1440 046d 99210000 		.4byte	.LASF188
 1441 0471 05       		.byte	0x5
 1442 0472 00       		.uleb128 0
 1443 0473 BE170000 		.4byte	.LASF189
 1444 0477 05       		.byte	0x5
 1445 0478 00       		.uleb128 0
 1446 0479 FC2E0000 		.4byte	.LASF190
 1447 047d 05       		.byte	0x5
 1448 047e 00       		.uleb128 0
ARM GAS  /tmp/ccXFiNL9.s 			page 27


 1449 047f 811B0000 		.4byte	.LASF191
 1450 0483 05       		.byte	0x5
 1451 0484 00       		.uleb128 0
 1452 0485 6D270000 		.4byte	.LASF192
 1453 0489 05       		.byte	0x5
 1454 048a 00       		.uleb128 0
 1455 048b 0C0F0000 		.4byte	.LASF193
 1456 048f 05       		.byte	0x5
 1457 0490 00       		.uleb128 0
 1458 0491 C12E0000 		.4byte	.LASF194
 1459 0495 05       		.byte	0x5
 1460 0496 00       		.uleb128 0
 1461 0497 B61B0000 		.4byte	.LASF195
 1462 049b 05       		.byte	0x5
 1463 049c 00       		.uleb128 0
 1464 049d 4D210000 		.4byte	.LASF196
 1465 04a1 05       		.byte	0x5
 1466 04a2 00       		.uleb128 0
 1467 04a3 FE030000 		.4byte	.LASF197
 1468 04a7 05       		.byte	0x5
 1469 04a8 00       		.uleb128 0
 1470 04a9 40010000 		.4byte	.LASF198
 1471 04ad 05       		.byte	0x5
 1472 04ae 00       		.uleb128 0
 1473 04af 39170000 		.4byte	.LASF199
 1474 04b3 05       		.byte	0x5
 1475 04b4 00       		.uleb128 0
 1476 04b5 83130000 		.4byte	.LASF200
 1477 04b9 05       		.byte	0x5
 1478 04ba 00       		.uleb128 0
 1479 04bb 8A060000 		.4byte	.LASF201
 1480 04bf 05       		.byte	0x5
 1481 04c0 00       		.uleb128 0
 1482 04c1 16160000 		.4byte	.LASF202
 1483 04c5 05       		.byte	0x5
 1484 04c6 00       		.uleb128 0
 1485 04c7 AE2D0000 		.4byte	.LASF203
 1486 04cb 05       		.byte	0x5
 1487 04cc 00       		.uleb128 0
 1488 04cd AD110000 		.4byte	.LASF204
 1489 04d1 05       		.byte	0x5
 1490 04d2 00       		.uleb128 0
 1491 04d3 9B050000 		.4byte	.LASF205
 1492 04d7 05       		.byte	0x5
 1493 04d8 00       		.uleb128 0
 1494 04d9 FC1E0000 		.4byte	.LASF206
 1495 04dd 05       		.byte	0x5
 1496 04de 00       		.uleb128 0
 1497 04df 96280000 		.4byte	.LASF207
 1498 04e3 05       		.byte	0x5
 1499 04e4 00       		.uleb128 0
 1500 04e5 40080000 		.4byte	.LASF208
 1501 04e9 05       		.byte	0x5
 1502 04ea 00       		.uleb128 0
 1503 04eb 53240000 		.4byte	.LASF209
 1504 04ef 05       		.byte	0x5
 1505 04f0 00       		.uleb128 0
ARM GAS  /tmp/ccXFiNL9.s 			page 28


 1506 04f1 AA090000 		.4byte	.LASF210
 1507 04f5 05       		.byte	0x5
 1508 04f6 00       		.uleb128 0
 1509 04f7 6F000000 		.4byte	.LASF211
 1510 04fb 05       		.byte	0x5
 1511 04fc 00       		.uleb128 0
 1512 04fd 900B0000 		.4byte	.LASF212
 1513 0501 05       		.byte	0x5
 1514 0502 00       		.uleb128 0
 1515 0503 BD080000 		.4byte	.LASF213
 1516 0507 05       		.byte	0x5
 1517 0508 00       		.uleb128 0
 1518 0509 85030000 		.4byte	.LASF214
 1519 050d 05       		.byte	0x5
 1520 050e 00       		.uleb128 0
 1521 050f 35060000 		.4byte	.LASF215
 1522 0513 05       		.byte	0x5
 1523 0514 00       		.uleb128 0
 1524 0515 63070000 		.4byte	.LASF216
 1525 0519 05       		.byte	0x5
 1526 051a 00       		.uleb128 0
 1527 051b 23270000 		.4byte	.LASF217
 1528 051f 05       		.byte	0x5
 1529 0520 00       		.uleb128 0
 1530 0521 18110000 		.4byte	.LASF218
 1531 0525 05       		.byte	0x5
 1532 0526 00       		.uleb128 0
 1533 0527 A9000000 		.4byte	.LASF219
 1534 052b 05       		.byte	0x5
 1535 052c 00       		.uleb128 0
 1536 052d 390F0000 		.4byte	.LASF220
 1537 0531 05       		.byte	0x5
 1538 0532 00       		.uleb128 0
 1539 0533 55130000 		.4byte	.LASF221
 1540 0537 05       		.byte	0x5
 1541 0538 00       		.uleb128 0
 1542 0539 DC200000 		.4byte	.LASF222
 1543 053d 05       		.byte	0x5
 1544 053e 00       		.uleb128 0
 1545 053f 04070000 		.4byte	.LASF223
 1546 0543 05       		.byte	0x5
 1547 0544 00       		.uleb128 0
 1548 0545 580E0000 		.4byte	.LASF224
 1549 0549 05       		.byte	0x5
 1550 054a 00       		.uleb128 0
 1551 054b 2A260000 		.4byte	.LASF225
 1552 054f 05       		.byte	0x5
 1553 0550 00       		.uleb128 0
 1554 0551 C1090000 		.4byte	.LASF226
 1555 0555 05       		.byte	0x5
 1556 0556 00       		.uleb128 0
 1557 0557 5D140000 		.4byte	.LASF227
 1558 055b 05       		.byte	0x5
 1559 055c 00       		.uleb128 0
 1560 055d 8B0D0000 		.4byte	.LASF228
 1561 0561 05       		.byte	0x5
 1562 0562 00       		.uleb128 0
ARM GAS  /tmp/ccXFiNL9.s 			page 29


 1563 0563 43000000 		.4byte	.LASF229
 1564 0567 05       		.byte	0x5
 1565 0568 00       		.uleb128 0
 1566 0569 B1220000 		.4byte	.LASF230
 1567 056d 05       		.byte	0x5
 1568 056e 00       		.uleb128 0
 1569 056f FD160000 		.4byte	.LASF231
 1570 0573 05       		.byte	0x5
 1571 0574 00       		.uleb128 0
 1572 0575 C0160000 		.4byte	.LASF232
 1573 0579 05       		.byte	0x5
 1574 057a 00       		.uleb128 0
 1575 057b DE020000 		.4byte	.LASF233
 1576 057f 05       		.byte	0x5
 1577 0580 00       		.uleb128 0
 1578 0581 0F200000 		.4byte	.LASF234
 1579 0585 05       		.byte	0x5
 1580 0586 00       		.uleb128 0
 1581 0587 CD000000 		.4byte	.LASF235
 1582 058b 05       		.byte	0x5
 1583 058c 00       		.uleb128 0
 1584 058d 1F2D0000 		.4byte	.LASF236
 1585 0591 05       		.byte	0x5
 1586 0592 00       		.uleb128 0
 1587 0593 AD010000 		.4byte	.LASF237
 1588 0597 05       		.byte	0x5
 1589 0598 00       		.uleb128 0
 1590 0599 35250000 		.4byte	.LASF238
 1591 059d 05       		.byte	0x5
 1592 059e 00       		.uleb128 0
 1593 059f 3D270000 		.4byte	.LASF239
 1594 05a3 05       		.byte	0x5
 1595 05a4 00       		.uleb128 0
 1596 05a5 D12B0000 		.4byte	.LASF240
 1597 05a9 05       		.byte	0x5
 1598 05aa 00       		.uleb128 0
 1599 05ab 6D290000 		.4byte	.LASF241
 1600 05af 05       		.byte	0x5
 1601 05b0 00       		.uleb128 0
 1602 05b1 A40D0000 		.4byte	.LASF242
 1603 05b5 05       		.byte	0x5
 1604 05b6 00       		.uleb128 0
 1605 05b7 C0140000 		.4byte	.LASF243
 1606 05bb 05       		.byte	0x5
 1607 05bc 00       		.uleb128 0
 1608 05bd 372C0000 		.4byte	.LASF244
 1609 05c1 05       		.byte	0x5
 1610 05c2 00       		.uleb128 0
 1611 05c3 9F2B0000 		.4byte	.LASF245
 1612 05c7 05       		.byte	0x5
 1613 05c8 00       		.uleb128 0
 1614 05c9 75170000 		.4byte	.LASF246
 1615 05cd 05       		.byte	0x5
 1616 05ce 00       		.uleb128 0
 1617 05cf 5E1D0000 		.4byte	.LASF247
 1618 05d3 05       		.byte	0x5
 1619 05d4 00       		.uleb128 0
ARM GAS  /tmp/ccXFiNL9.s 			page 30


 1620 05d5 991D0000 		.4byte	.LASF248
 1621 05d9 05       		.byte	0x5
 1622 05da 00       		.uleb128 0
 1623 05db 7B0F0000 		.4byte	.LASF249
 1624 05df 05       		.byte	0x5
 1625 05e0 00       		.uleb128 0
 1626 05e1 F00B0000 		.4byte	.LASF250
 1627 05e5 05       		.byte	0x5
 1628 05e6 00       		.uleb128 0
 1629 05e7 0A250000 		.4byte	.LASF251
 1630 05eb 05       		.byte	0x5
 1631 05ec 00       		.uleb128 0
 1632 05ed 23220000 		.4byte	.LASF252
 1633 05f1 05       		.byte	0x5
 1634 05f2 00       		.uleb128 0
 1635 05f3 E7270000 		.4byte	.LASF253
 1636 05f7 05       		.byte	0x5
 1637 05f8 00       		.uleb128 0
 1638 05f9 B7020000 		.4byte	.LASF254
 1639 05fd 05       		.byte	0x5
 1640 05fe 00       		.uleb128 0
 1641 05ff 5C100000 		.4byte	.LASF255
 1642 0603 05       		.byte	0x5
 1643 0604 00       		.uleb128 0
 1644 0605 20190000 		.4byte	.LASF256
 1645 0609 05       		.byte	0x5
 1646 060a 00       		.uleb128 0
 1647 060b 34140000 		.4byte	.LASF257
 1648 060f 05       		.byte	0x5
 1649 0610 00       		.uleb128 0
 1650 0611 701B0000 		.4byte	.LASF258
 1651 0615 05       		.byte	0x5
 1652 0616 00       		.uleb128 0
 1653 0617 810E0000 		.4byte	.LASF259
 1654 061b 05       		.byte	0x5
 1655 061c 00       		.uleb128 0
 1656 061d B21A0000 		.4byte	.LASF260
 1657 0621 05       		.byte	0x5
 1658 0622 00       		.uleb128 0
 1659 0623 C7250000 		.4byte	.LASF261
 1660 0627 05       		.byte	0x5
 1661 0628 00       		.uleb128 0
 1662 0629 2B120000 		.4byte	.LASF262
 1663 062d 05       		.byte	0x5
 1664 062e 00       		.uleb128 0
 1665 062f 5D000000 		.4byte	.LASF263
 1666 0633 05       		.byte	0x5
 1667 0634 00       		.uleb128 0
 1668 0635 261B0000 		.4byte	.LASF264
 1669 0639 05       		.byte	0x5
 1670 063a 00       		.uleb128 0
 1671 063b D40B0000 		.4byte	.LASF265
 1672 063f 05       		.byte	0x5
 1673 0640 00       		.uleb128 0
 1674 0641 B01F0000 		.4byte	.LASF266
 1675 0645 05       		.byte	0x5
 1676 0646 00       		.uleb128 0
ARM GAS  /tmp/ccXFiNL9.s 			page 31


 1677 0647 E4150000 		.4byte	.LASF267
 1678 064b 05       		.byte	0x5
 1679 064c 00       		.uleb128 0
 1680 064d A5060000 		.4byte	.LASF268
 1681 0651 05       		.byte	0x5
 1682 0652 00       		.uleb128 0
 1683 0653 AD200000 		.4byte	.LASF269
 1684 0657 05       		.byte	0x5
 1685 0658 00       		.uleb128 0
 1686 0659 DA2D0000 		.4byte	.LASF270
 1687 065d 05       		.byte	0x5
 1688 065e 00       		.uleb128 0
 1689 065f 570D0000 		.4byte	.LASF271
 1690 0663 05       		.byte	0x5
 1691 0664 00       		.uleb128 0
 1692 0665 201A0000 		.4byte	.LASF272
 1693 0669 05       		.byte	0x5
 1694 066a 00       		.uleb128 0
 1695 066b 9E0C0000 		.4byte	.LASF273
 1696 066f 05       		.byte	0x5
 1697 0670 00       		.uleb128 0
 1698 0671 1F130000 		.4byte	.LASF274
 1699 0675 05       		.byte	0x5
 1700 0676 00       		.uleb128 0
 1701 0677 01240000 		.4byte	.LASF275
 1702 067b 05       		.byte	0x5
 1703 067c 00       		.uleb128 0
 1704 067d 610C0000 		.4byte	.LASF276
 1705 0681 05       		.byte	0x5
 1706 0682 00       		.uleb128 0
 1707 0683 46150000 		.4byte	.LASF277
 1708 0687 05       		.byte	0x5
 1709 0688 00       		.uleb128 0
 1710 0689 75020000 		.4byte	.LASF278
 1711 068d 05       		.byte	0x5
 1712 068e 00       		.uleb128 0
 1713 068f 6B2E0000 		.4byte	.LASF279
 1714 0693 05       		.byte	0x5
 1715 0694 00       		.uleb128 0
 1716 0695 250A0000 		.4byte	.LASF280
 1717 0699 05       		.byte	0x5
 1718 069a 00       		.uleb128 0
 1719 069b 0F1D0000 		.4byte	.LASF281
 1720 069f 05       		.byte	0x5
 1721 06a0 00       		.uleb128 0
 1722 06a1 1B1C0000 		.4byte	.LASF282
 1723 06a5 05       		.byte	0x5
 1724 06a6 00       		.uleb128 0
 1725 06a7 4F070000 		.4byte	.LASF283
 1726 06ab 05       		.byte	0x5
 1727 06ac 00       		.uleb128 0
 1728 06ad 110D0000 		.4byte	.LASF284
 1729 06b1 05       		.byte	0x5
 1730 06b2 00       		.uleb128 0
 1731 06b3 4D040000 		.4byte	.LASF285
 1732 06b7 05       		.byte	0x5
 1733 06b8 00       		.uleb128 0
ARM GAS  /tmp/ccXFiNL9.s 			page 32


 1734 06b9 A02E0000 		.4byte	.LASF286
 1735 06bd 05       		.byte	0x5
 1736 06be 00       		.uleb128 0
 1737 06bf FB0D0000 		.4byte	.LASF287
 1738 06c3 05       		.byte	0x5
 1739 06c4 00       		.uleb128 0
 1740 06c5 520F0000 		.4byte	.LASF288
 1741 06c9 05       		.byte	0x5
 1742 06ca 00       		.uleb128 0
 1743 06cb 82240000 		.4byte	.LASF289
 1744 06cf 05       		.byte	0x5
 1745 06d0 00       		.uleb128 0
 1746 06d1 FB170000 		.4byte	.LASF290
 1747 06d5 05       		.byte	0x5
 1748 06d6 00       		.uleb128 0
 1749 06d7 5F110000 		.4byte	.LASF291
 1750 06db 05       		.byte	0x5
 1751 06dc 00       		.uleb128 0
 1752 06dd 482F0000 		.4byte	.LASF292
 1753 06e1 05       		.byte	0x5
 1754 06e2 00       		.uleb128 0
 1755 06e3 0B140000 		.4byte	.LASF293
 1756 06e7 05       		.byte	0x5
 1757 06e8 00       		.uleb128 0
 1758 06e9 D0270000 		.4byte	.LASF294
 1759 06ed 05       		.byte	0x5
 1760 06ee 00       		.uleb128 0
 1761 06ef 441E0000 		.4byte	.LASF295
 1762 06f3 05       		.byte	0x5
 1763 06f4 00       		.uleb128 0
 1764 06f5 570B0000 		.4byte	.LASF296
 1765 06f9 05       		.byte	0x5
 1766 06fa 00       		.uleb128 0
 1767 06fb AC170000 		.4byte	.LASF297
 1768 06ff 05       		.byte	0x5
 1769 0700 00       		.uleb128 0
 1770 0701 FA0E0000 		.4byte	.LASF298
 1771 0705 05       		.byte	0x5
 1772 0706 00       		.uleb128 0
 1773 0707 461A0000 		.4byte	.LASF299
 1774 070b 05       		.byte	0x5
 1775 070c 00       		.uleb128 0
 1776 070d A01C0000 		.4byte	.LASF300
 1777 0711 05       		.byte	0x5
 1778 0712 00       		.uleb128 0
 1779 0713 D2160000 		.4byte	.LASF301
 1780 0717 05       		.byte	0x5
 1781 0718 00       		.uleb128 0
 1782 0719 74190000 		.4byte	.LASF302
 1783 071d 05       		.byte	0x5
 1784 071e 00       		.uleb128 0
 1785 071f 9C130000 		.4byte	.LASF303
 1786 0723 05       		.byte	0x5
 1787 0724 00       		.uleb128 0
 1788 0725 420D0000 		.4byte	.LASF304
 1789 0729 05       		.byte	0x5
 1790 072a 00       		.uleb128 0
ARM GAS  /tmp/ccXFiNL9.s 			page 33


 1791 072b C5230000 		.4byte	.LASF305
 1792 072f 05       		.byte	0x5
 1793 0730 00       		.uleb128 0
 1794 0731 DD0E0000 		.4byte	.LASF306
 1795 0735 05       		.byte	0x5
 1796 0736 00       		.uleb128 0
 1797 0737 5C160000 		.4byte	.LASF307
 1798 073b 05       		.byte	0x5
 1799 073c 00       		.uleb128 0
 1800 073d 49100000 		.4byte	.LASF308
 1801 0741 05       		.byte	0x5
 1802 0742 00       		.uleb128 0
 1803 0743 B7070000 		.4byte	.LASF309
 1804 0747 05       		.byte	0x5
 1805 0748 00       		.uleb128 0
 1806 0749 DA180000 		.4byte	.LASF310
 1807 074d 05       		.byte	0x5
 1808 074e 00       		.uleb128 0
 1809 074f ED240000 		.4byte	.LASF311
 1810 0753 05       		.byte	0x5
 1811 0754 00       		.uleb128 0
 1812 0755 E91A0000 		.4byte	.LASF312
 1813 0759 05       		.byte	0x5
 1814 075a 00       		.uleb128 0
 1815 075b 32150000 		.4byte	.LASF313
 1816 075f 05       		.byte	0x5
 1817 0760 00       		.uleb128 0
 1818 0761 07080000 		.4byte	.LASF314
 1819 0765 05       		.byte	0x5
 1820 0766 00       		.uleb128 0
 1821 0767 AA0B0000 		.4byte	.LASF315
 1822 076b 05       		.byte	0x5
 1823 076c 00       		.uleb128 0
 1824 076d 21010000 		.4byte	.LASF316
 1825 0771 05       		.byte	0x5
 1826 0772 00       		.uleb128 0
 1827 0773 B10C0000 		.4byte	.LASF317
 1828 0777 05       		.byte	0x5
 1829 0778 00       		.uleb128 0
 1830 0779 C3050000 		.4byte	.LASF318
 1831 077d 05       		.byte	0x5
 1832 077e 00       		.uleb128 0
 1833 077f D3100000 		.4byte	.LASF319
 1834 0783 05       		.byte	0x5
 1835 0784 00       		.uleb128 0
 1836 0785 B8120000 		.4byte	.LASF320
 1837 0789 05       		.byte	0x5
 1838 078a 00       		.uleb128 0
 1839 078b E2120000 		.4byte	.LASF321
 1840 078f 05       		.byte	0x5
 1841 0790 00       		.uleb128 0
 1842 0791 D9280000 		.4byte	.LASF322
 1843 0795 05       		.byte	0x5
 1844 0796 00       		.uleb128 0
 1845 0797 5B1B0000 		.4byte	.LASF323
 1846 079b 05       		.byte	0x5
 1847 079c 00       		.uleb128 0
ARM GAS  /tmp/ccXFiNL9.s 			page 34


 1848 079d 25090000 		.4byte	.LASF324
 1849 07a1 05       		.byte	0x5
 1850 07a2 00       		.uleb128 0
 1851 07a3 DB070000 		.4byte	.LASF325
 1852 07a7 05       		.byte	0x5
 1853 07a8 00       		.uleb128 0
 1854 07a9 272F0000 		.4byte	.LASF326
 1855 07ad 05       		.byte	0x5
 1856 07ae 00       		.uleb128 0
 1857 07af 292C0000 		.4byte	.LASF327
 1858 07b3 05       		.byte	0x5
 1859 07b4 00       		.uleb128 0
 1860 07b5 8B010000 		.4byte	.LASF328
 1861 07b9 05       		.byte	0x5
 1862 07ba 00       		.uleb128 0
 1863 07bb 4B220000 		.4byte	.LASF329
 1864 07bf 05       		.byte	0x5
 1865 07c0 00       		.uleb128 0
 1866 07c1 AB1D0000 		.4byte	.LASF330
 1867 07c5 05       		.byte	0x5
 1868 07c6 00       		.uleb128 0
 1869 07c7 9E200000 		.4byte	.LASF331
 1870 07cb 05       		.byte	0x5
 1871 07cc 00       		.uleb128 0
 1872 07cd EE1E0000 		.4byte	.LASF332
 1873 07d1 05       		.byte	0x5
 1874 07d2 00       		.uleb128 0
 1875 07d3 351E0000 		.4byte	.LASF333
 1876 07d7 05       		.byte	0x5
 1877 07d8 00       		.uleb128 0
 1878 07d9 64280000 		.4byte	.LASF334
 1879 07dd 05       		.byte	0x5
 1880 07de 00       		.uleb128 0
 1881 07df B1210000 		.4byte	.LASF335
 1882 07e3 05       		.byte	0x5
 1883 07e4 00       		.uleb128 0
 1884 07e5 35180000 		.4byte	.LASF336
 1885 07e9 05       		.byte	0x5
 1886 07ea 00       		.uleb128 0
 1887 07eb 921F0000 		.4byte	.LASF337
 1888 07ef 05       		.byte	0x5
 1889 07f0 00       		.uleb128 0
 1890 07f1 26250000 		.4byte	.LASF338
 1891 07f5 05       		.byte	0x5
 1892 07f6 00       		.uleb128 0
 1893 07f7 C1210000 		.4byte	.LASF339
 1894 07fb 05       		.byte	0x5
 1895 07fc 00       		.uleb128 0
 1896 07fd 1C120000 		.4byte	.LASF340
 1897 0801 05       		.byte	0x5
 1898 0802 00       		.uleb128 0
 1899 0803 60250000 		.4byte	.LASF341
 1900 0807 05       		.byte	0x5
 1901 0808 00       		.uleb128 0
 1902 0809 A11F0000 		.4byte	.LASF342
 1903 080d 05       		.byte	0x5
 1904 080e 00       		.uleb128 0
ARM GAS  /tmp/ccXFiNL9.s 			page 35


 1905 080f ED160000 		.4byte	.LASF343
 1906 0813 05       		.byte	0x5
 1907 0814 00       		.uleb128 0
 1908 0815 99010000 		.4byte	.LASF344
 1909 0819 05       		.byte	0x5
 1910 081a 00       		.uleb128 0
 1911 081b 49170000 		.4byte	.LASF345
 1912 081f 05       		.byte	0x5
 1913 0820 00       		.uleb128 0
 1914 0821 6F160000 		.4byte	.LASF346
 1915 0825 05       		.byte	0x5
 1916 0826 00       		.uleb128 0
 1917 0827 30240000 		.4byte	.LASF347
 1918 082b 05       		.byte	0x5
 1919 082c 00       		.uleb128 0
 1920 082d 14170000 		.4byte	.LASF348
 1921 0831 05       		.byte	0x5
 1922 0832 00       		.uleb128 0
 1923 0833 09110000 		.4byte	.LASF349
 1924 0837 05       		.byte	0x5
 1925 0838 00       		.uleb128 0
 1926 0839 160A0000 		.4byte	.LASF350
 1927 083d 05       		.byte	0x5
 1928 083e 00       		.uleb128 0
 1929 083f 080B0000 		.4byte	.LASF351
 1930 0843 05       		.byte	0x5
 1931 0844 00       		.uleb128 0
 1932 0845 22100000 		.4byte	.LASF352
 1933 0849 05       		.byte	0x5
 1934 084a 00       		.uleb128 0
 1935 084b A71B0000 		.4byte	.LASF353
 1936 084f 05       		.byte	0x5
 1937 0850 00       		.uleb128 0
 1938 0851 1A2C0000 		.4byte	.LASF354
 1939 0855 05       		.byte	0x5
 1940 0856 00       		.uleb128 0
 1941 0857 43180000 		.4byte	.LASF355
 1942 085b 05       		.byte	0x5
 1943 085c 00       		.uleb128 0
 1944 085d 5A220000 		.4byte	.LASF356
 1945 0861 05       		.byte	0x5
 1946 0862 00       		.uleb128 0
 1947 0863 71150000 		.4byte	.LASF357
 1948 0867 05       		.byte	0x5
 1949 0868 00       		.uleb128 0
 1950 0869 990F0000 		.4byte	.LASF358
 1951 086d 05       		.byte	0x5
 1952 086e 00       		.uleb128 0
 1953 086f 04100000 		.4byte	.LASF359
 1954 0873 05       		.byte	0x5
 1955 0874 00       		.uleb128 0
 1956 0875 6B080000 		.4byte	.LASF360
 1957 0879 05       		.byte	0x5
 1958 087a 00       		.uleb128 0
 1959 087b A8040000 		.4byte	.LASF361
 1960 087f 05       		.byte	0x5
 1961 0880 00       		.uleb128 0
ARM GAS  /tmp/ccXFiNL9.s 			page 36


 1962 0881 2D290000 		.4byte	.LASF362
 1963 0885 05       		.byte	0x5
 1964 0886 00       		.uleb128 0
 1965 0887 6E130000 		.4byte	.LASF363
 1966 088b 05       		.byte	0x5
 1967 088c 00       		.uleb128 0
 1968 088d B91D0000 		.4byte	.LASF364
 1969 0891 05       		.byte	0x5
 1970 0892 00       		.uleb128 0
 1971 0893 05120000 		.4byte	.LASF365
 1972 0897 05       		.byte	0x5
 1973 0898 00       		.uleb128 0
 1974 0899 38050000 		.4byte	.LASF366
 1975 089d 05       		.byte	0x5
 1976 089e 00       		.uleb128 0
 1977 089f F1090000 		.4byte	.LASF367
 1978 08a3 05       		.byte	0x5
 1979 08a4 00       		.uleb128 0
 1980 08a5 E30A0000 		.4byte	.LASF368
 1981 08a9 05       		.byte	0x5
 1982 08aa 00       		.uleb128 0
 1983 08ab 75260000 		.4byte	.LASF369
 1984 08af 05       		.byte	0x5
 1985 08b0 00       		.uleb128 0
 1986 08b1 3F1F0000 		.4byte	.LASF370
 1987 08b5 05       		.byte	0x5
 1988 08b6 00       		.uleb128 0
 1989 08b7 FC2B0000 		.4byte	.LASF371
 1990 08bb 05       		.byte	0x5
 1991 08bc 00       		.uleb128 0
 1992 08bd F6010000 		.4byte	.LASF372
 1993 08c1 05       		.byte	0x5
 1994 08c2 00       		.uleb128 0
 1995 08c3 98250000 		.4byte	.LASF373
 1996 08c7 05       		.byte	0x5
 1997 08c8 00       		.uleb128 0
 1998 08c9 11150000 		.4byte	.LASF374
 1999 08cd 05       		.byte	0x5
 2000 08ce 00       		.uleb128 0
 2001 08cf 0E290000 		.4byte	.LASF375
 2002 08d3 05       		.byte	0x5
 2003 08d4 00       		.uleb128 0
 2004 08d5 9C0E0000 		.4byte	.LASF376
 2005 08d9 05       		.byte	0x5
 2006 08da 00       		.uleb128 0
 2007 08db A2160000 		.4byte	.LASF377
 2008 08df 05       		.byte	0x5
 2009 08e0 00       		.uleb128 0
 2010 08e1 56260000 		.4byte	.LASF378
 2011 08e5 05       		.byte	0x5
 2012 08e6 00       		.uleb128 0
 2013 08e7 FD000000 		.4byte	.LASF379
 2014 08eb 05       		.byte	0x5
 2015 08ec 00       		.uleb128 0
 2016 08ed 27210000 		.4byte	.LASF380
 2017 08f1 05       		.byte	0x5
 2018 08f2 00       		.uleb128 0
ARM GAS  /tmp/ccXFiNL9.s 			page 37


 2019 08f3 79040000 		.4byte	.LASF381
 2020 08f7 05       		.byte	0x5
 2021 08f8 00       		.uleb128 0
 2022 08f9 B5240000 		.4byte	.LASF382
 2023 08fd 05       		.byte	0x5
 2024 08fe 00       		.uleb128 0
 2025 08ff B3100000 		.4byte	.LASF383
 2026 0903 05       		.byte	0x5
 2027 0904 00       		.uleb128 0
 2028 0905 99180000 		.4byte	.LASF384
 2029 0909 05       		.byte	0x5
 2030 090a 00       		.uleb128 0
 2031 090b 0E260000 		.4byte	.LASF385
 2032 090f 05       		.byte	0x5
 2033 0910 00       		.uleb128 0
 2034 0911 301C0000 		.4byte	.LASF386
 2035 0915 05       		.byte	0x5
 2036 0916 00       		.uleb128 0
 2037 0917 77010000 		.4byte	.LASF387
 2038 091b 05       		.byte	0x5
 2039 091c 00       		.uleb128 0
 2040 091d 640F0000 		.4byte	.LASF388
 2041 0921 05       		.byte	0x5
 2042 0922 00       		.uleb128 0
 2043 0923 94040000 		.4byte	.LASF389
 2044 0927 05       		.byte	0x5
 2045 0928 00       		.uleb128 0
 2046 0929 E6290000 		.4byte	.LASF390
 2047 092d 05       		.byte	0x5
 2048 092e 00       		.uleb128 0
 2049 092f C62D0000 		.4byte	.LASF391
 2050 0933 06       		.byte	0x6
 2051 0934 00       		.uleb128 0
 2052 0935 3C030000 		.4byte	.LASF392
 2053 0939 06       		.byte	0x6
 2054 093a 00       		.uleb128 0
 2055 093b F9220000 		.4byte	.LASF393
 2056 093f 06       		.byte	0x6
 2057 0940 00       		.uleb128 0
 2058 0941 5F090000 		.4byte	.LASF394
 2059 0945 05       		.byte	0x5
 2060 0946 00       		.uleb128 0
 2061 0947 C10F0000 		.4byte	.LASF395
 2062 094b 06       		.byte	0x6
 2063 094c 00       		.uleb128 0
 2064 094d 65050000 		.4byte	.LASF396
 2065 0951 06       		.byte	0x6
 2066 0952 00       		.uleb128 0
 2067 0953 9A2D0000 		.4byte	.LASF397
 2068 0957 06       		.byte	0x6
 2069 0958 00       		.uleb128 0
 2070 0959 3E090000 		.4byte	.LASF398
 2071 095d 06       		.byte	0x6
 2072 095e 00       		.uleb128 0
 2073 095f 5F020000 		.4byte	.LASF399
 2074 0963 05       		.byte	0x5
 2075 0964 00       		.uleb128 0
ARM GAS  /tmp/ccXFiNL9.s 			page 38


 2076 0965 D0080000 		.4byte	.LASF400
 2077 0969 06       		.byte	0x6
 2078 096a 00       		.uleb128 0
 2079 096b E82C0000 		.4byte	.LASF401
 2080 096f 06       		.byte	0x6
 2081 0970 00       		.uleb128 0
 2082 0971 7B080000 		.4byte	.LASF402
 2083 0975 06       		.byte	0x6
 2084 0976 00       		.uleb128 0
 2085 0977 45110000 		.4byte	.LASF403
 2086 097b 06       		.byte	0x6
 2087 097c 00       		.uleb128 0
 2088 097d 7B110000 		.4byte	.LASF404
 2089 0981 06       		.byte	0x6
 2090 0982 00       		.uleb128 0
 2091 0983 D01C0000 		.4byte	.LASF405
 2092 0987 06       		.byte	0x6
 2093 0988 00       		.uleb128 0
 2094 0989 72090000 		.4byte	.LASF406
 2095 098d 06       		.byte	0x6
 2096 098e 00       		.uleb128 0
 2097 098f AA150000 		.4byte	.LASF407
 2098 0993 05       		.byte	0x5
 2099 0994 00       		.uleb128 0
 2100 0995 611E0000 		.4byte	.LASF408
 2101 0999 05       		.byte	0x5
 2102 099a 00       		.uleb128 0
 2103 099b 3E120000 		.4byte	.LASF409
 2104 099f 06       		.byte	0x6
 2105 09a0 00       		.uleb128 0
 2106 09a1 32070000 		.4byte	.LASF410
 2107 09a5 05       		.byte	0x5
 2108 09a6 00       		.uleb128 0
 2109 09a7 69220000 		.4byte	.LASF411
 2110 09ab 05       		.byte	0x5
 2111 09ac 00       		.uleb128 0
 2112 09ad 170B0000 		.4byte	.LASF412
 2113 09b1 05       		.byte	0x5
 2114 09b2 00       		.uleb128 0
 2115 09b3 31020000 		.4byte	.LASF413
 2116 09b7 06       		.byte	0x6
 2117 09b8 00       		.uleb128 0
 2118 09b9 77180000 		.4byte	.LASF414
 2119 09bd 05       		.byte	0x5
 2120 09be 00       		.uleb128 0
 2121 09bf 512C0000 		.4byte	.LASF415
 2122 09c3 05       		.byte	0x5
 2123 09c4 00       		.uleb128 0
 2124 09c5 16180000 		.4byte	.LASF416
 2125 09c9 06       		.byte	0x6
 2126 09ca 00       		.uleb128 0
 2127 09cb 4A130000 		.4byte	.LASF417
 2128 09cf 05       		.byte	0x5
 2129 09d0 00       		.uleb128 0
 2130 09d1 B7060000 		.4byte	.LASF418
 2131 09d5 05       		.byte	0x5
 2132 09d6 00       		.uleb128 0
ARM GAS  /tmp/ccXFiNL9.s 			page 39


 2133 09d7 702A0000 		.4byte	.LASF419
 2134 09db 05       		.byte	0x5
 2135 09dc 00       		.uleb128 0
 2136 09dd 52180000 		.4byte	.LASF420
 2137 09e1 05       		.byte	0x5
 2138 09e2 00       		.uleb128 0
 2139 09e3 41210000 		.4byte	.LASF421
 2140 09e7 05       		.byte	0x5
 2141 09e8 00       		.uleb128 0
 2142 09e9 C0000000 		.4byte	.LASF422
 2143 09ed 05       		.byte	0x5
 2144 09ee 00       		.uleb128 0
 2145 09ef 14100000 		.4byte	.LASF423
 2146 09f3 06       		.byte	0x6
 2147 09f4 00       		.uleb128 0
 2148 09f5 47160000 		.4byte	.LASF424
 2149 09f9 05       		.byte	0x5
 2150 09fa 00       		.uleb128 0
 2151 09fb 22170000 		.4byte	.LASF425
 2152 09ff 05       		.byte	0x5
 2153 0a00 00       		.uleb128 0
 2154 0a01 3B160000 		.4byte	.LASF426
 2155 0a05 05       		.byte	0x5
 2156 0a06 00       		.uleb128 0
 2157 0a07 E5230000 		.4byte	.LASF427
 2158 0a0b 06       		.byte	0x6
 2159 0a0c 00       		.uleb128 0
 2160 0a0d 8F170000 		.4byte	.LASF428
 2161 0a11 05       		.byte	0x5
 2162 0a12 00       		.uleb128 0
 2163 0a13 1E080000 		.4byte	.LASF429
 2164 0a17 06       		.byte	0x6
 2165 0a18 00       		.uleb128 0
 2166 0a19 48020000 		.4byte	.LASF430
 2167 0a1d 06       		.byte	0x6
 2168 0a1e 00       		.uleb128 0
 2169 0a1f 07090000 		.4byte	.LASF431
 2170 0a23 06       		.byte	0x6
 2171 0a24 00       		.uleb128 0
 2172 0a25 C7190000 		.4byte	.LASF432
 2173 0a29 06       		.byte	0x6
 2174 0a2a 00       		.uleb128 0
 2175 0a2b D60D0000 		.4byte	.LASF433
 2176 0a2f 06       		.byte	0x6
 2177 0a30 00       		.uleb128 0
 2178 0a31 00000000 		.4byte	.LASF434
 2179 0a35 06       		.byte	0x6
 2180 0a36 00       		.uleb128 0
 2181 0a37 87070000 		.4byte	.LASF435
 2182 0a3b 05       		.byte	0x5
 2183 0a3c 00       		.uleb128 0
 2184 0a3d 8C2E0000 		.4byte	.LASF436
 2185 0a41 06       		.byte	0x6
 2186 0a42 00       		.uleb128 0
 2187 0a43 6A010000 		.4byte	.LASF437
 2188 0a47 06       		.byte	0x6
 2189 0a48 00       		.uleb128 0
ARM GAS  /tmp/ccXFiNL9.s 			page 40


 2190 0a49 54090000 		.4byte	.LASF438
 2191 0a4d 06       		.byte	0x6
 2192 0a4e 00       		.uleb128 0
 2193 0a4f 3B1B0000 		.4byte	.LASF439
 2194 0a53 05       		.byte	0x5
 2195 0a54 00       		.uleb128 0
 2196 0a55 1E140000 		.4byte	.LASF440
 2197 0a59 05       		.byte	0x5
 2198 0a5a 00       		.uleb128 0
 2199 0a5b FA2D0000 		.4byte	.LASF441
 2200 0a5f 05       		.byte	0x5
 2201 0a60 00       		.uleb128 0
 2202 0a61 AA270000 		.4byte	.LASF442
 2203 0a65 05       		.byte	0x5
 2204 0a66 00       		.uleb128 0
 2205 0a67 89250000 		.4byte	.LASF443
 2206 0a6b 06       		.byte	0x6
 2207 0a6c 00       		.uleb128 0
 2208 0a6d E4080000 		.4byte	.LASF444
 2209 0a71 05       		.byte	0x5
 2210 0a72 00       		.uleb128 0
 2211 0a73 A90F0000 		.4byte	.LASF445
 2212 0a77 05       		.byte	0x5
 2213 0a78 00       		.uleb128 0
 2214 0a79 73200000 		.4byte	.LASF446
 2215 0a7d 05       		.byte	0x5
 2216 0a7e 00       		.uleb128 0
 2217 0a7f 12030000 		.4byte	.LASF447
 2218 0a83 06       		.byte	0x6
 2219 0a84 00       		.uleb128 0
 2220 0a85 01130000 		.4byte	.LASF448
 2221 0a89 05       		.byte	0x5
 2222 0a8a 00       		.uleb128 0
 2223 0a8b 51190000 		.4byte	.LASF449
 2224 0a8f 06       		.byte	0x6
 2225 0a90 00       		.uleb128 0
 2226 0a91 D2150000 		.4byte	.LASF450
 2227 0a95 06       		.byte	0x6
 2228 0a96 00       		.uleb128 0
 2229 0a97 18020000 		.4byte	.LASF451
 2230 0a9b 06       		.byte	0x6
 2231 0a9c 00       		.uleb128 0
 2232 0a9d 9D2C0000 		.4byte	.LASF452
 2233 0aa1 06       		.byte	0x6
 2234 0aa2 00       		.uleb128 0
 2235 0aa3 2C200000 		.4byte	.LASF453
 2236 0aa7 06       		.byte	0x6
 2237 0aa8 00       		.uleb128 0
 2238 0aa9 8F1E0000 		.4byte	.LASF454
 2239 0aad 06       		.byte	0x6
 2240 0aae 00       		.uleb128 0
 2241 0aaf 2E1D0000 		.4byte	.LASF455
 2242 0ab3 05       		.byte	0x5
 2243 0ab4 00       		.uleb128 0
 2244 0ab5 911A0000 		.4byte	.LASF456
 2245 0ab9 05       		.byte	0x5
 2246 0aba 00       		.uleb128 0
ARM GAS  /tmp/ccXFiNL9.s 			page 41


 2247 0abb 6D180000 		.4byte	.LASF457
 2248 0abf 05       		.byte	0x5
 2249 0ac0 00       		.uleb128 0
 2250 0ac1 330B0000 		.4byte	.LASF458
 2251 0ac5 05       		.byte	0x5
 2252 0ac6 00       		.uleb128 0
 2253 0ac7 BA250000 		.4byte	.LASF459
 2254 0acb 05       		.byte	0x5
 2255 0acc 00       		.uleb128 0
 2256 0acd 231E0000 		.4byte	.LASF460
 2257 0ad1 05       		.byte	0x5
 2258 0ad2 00       		.uleb128 0
 2259 0ad3 9B290000 		.4byte	.LASF461
 2260 0ad7 00       		.byte	0
 2261              		.section	.debug_macro,"G",%progbits,wm4.stars.h.2.e58ad37bc5ce2270962eee581f90386b,comdat
 2262              	.Ldebug_macro3:
 2263 0000 0400     		.2byte	0x4
 2264 0002 00       		.byte	0
 2265 0003 05       		.byte	0x5
 2266 0004 02       		.uleb128 0x2
 2267 0005 6A1C0000 		.4byte	.LASF462
 2268 0009 05       		.byte	0x5
 2269 000a 04       		.uleb128 0x4
 2270 000b F2230000 		.4byte	.LASF463
 2271 000f 00       		.byte	0
 2272              		.section	.debug_line,"",%progbits
 2273              	.Ldebug_line0:
 2274 0000 C6000000 		.section	.debug_str,"MS",%progbits,1
 2274      03002D00 
 2274      00000201 
 2274      FB0E0D00 
 2274      01010101 
 2275              	.LASF434:
 2276 0000 5F5F4152 		.ascii	"__ARM_FEATURE_FP16_VECTOR_ARITHMETIC\000"
 2276      4D5F4645 
 2276      41545552 
 2276      455F4650 
 2276      31365F56 
 2277              	.LASF96:
 2278 0025 5F5F5349 		.ascii	"__SIG_ATOMIC_MAX__ 0x7fffffff\000"
 2278      475F4154 
 2278      4F4D4943 
 2278      5F4D4158 
 2278      5F5F2030 
 2279              	.LASF229:
 2280 0043 5F5F464C 		.ascii	"__FLT64_HAS_QUIET_NAN__ 1\000"
 2280      5436345F 
 2280      4841535F 
 2280      51554945 
 2280      545F4E41 
 2281              	.LASF263:
 2282 005d 5F5F5546 		.ascii	"__UFRACT_IBIT__ 0\000"
 2282      52414354 
 2282      5F494249 
 2282      545F5F20 
 2282      3000
 2283              	.LASF211:
ARM GAS  /tmp/ccXFiNL9.s 			page 42


 2284 006f 5F5F464C 		.ascii	"__FLT32_HAS_INFINITY__ 1\000"
 2284      5433325F 
 2284      4841535F 
 2284      494E4649 
 2284      4E495459 
 2285              	.LASF64:
 2286 0088 5F5F5549 		.ascii	"__UINT_FAST8_TYPE__ unsigned int\000"
 2286      4E545F46 
 2286      41535438 
 2286      5F545950 
 2286      455F5F20 
 2287              	.LASF219:
 2288 00a9 5F5F464C 		.ascii	"__FLT64_MAX_EXP__ 1024\000"
 2288      5436345F 
 2288      4D41585F 
 2288      4558505F 
 2288      5F203130 
 2289              	.LASF422:
 2290 00c0 5F5F7468 		.ascii	"__thumb2__ 1\000"
 2290      756D6232 
 2290      5F5F2031 
 2290      00
 2291              	.LASF235:
 2292 00cd 5F5F464C 		.ascii	"__FLT32X_MAX_EXP__ 1024\000"
 2292      54333258 
 2292      5F4D4158 
 2292      5F455850 
 2292      5F5F2031 
 2293              	.LASF130:
 2294 00e5 5F5F494E 		.ascii	"__INT_FAST16_WIDTH__ 32\000"
 2294      545F4641 
 2294      53543136 
 2294      5F574944 
 2294      54485F5F 
 2295              	.LASF379:
 2296 00fd 5F5F4743 		.ascii	"__GCC_ATOMIC_TEST_AND_SET_TRUEVAL 1\000"
 2296      435F4154 
 2296      4F4D4943 
 2296      5F544553 
 2296      545F414E 
 2297              	.LASF316:
 2298 0121 5F5F554C 		.ascii	"__ULACCUM_EPSILON__ 0x1P-32ULK\000"
 2298      41434355 
 2298      4D5F4550 
 2298      53494C4F 
 2298      4E5F5F20 
 2299              	.LASF198:
 2300 0140 5F5F464C 		.ascii	"__FLT32_MANT_DIG__ 24\000"
 2300      5433325F 
 2300      4D414E54 
 2300      5F444947 
 2300      5F5F2032 
 2301              	.LASF477:
 2302 0156 63686172 		.ascii	"char\000"
 2302      00
 2303              	.LASF120:
 2304 015b 5F5F5549 		.ascii	"__UINT8_C(c) c\000"
ARM GAS  /tmp/ccXFiNL9.s 			page 43


 2304      4E54385F 
 2304      43286329 
 2304      206300
 2305              	.LASF437:
 2306 016a 5F5F4152 		.ascii	"__ARM_NEON__\000"
 2306      4D5F4E45 
 2306      4F4E5F5F 
 2306      00
 2307              	.LASF387:
 2308 0177 5F5F5349 		.ascii	"__SIZEOF_WINT_T__ 4\000"
 2308      5A454F46 
 2308      5F57494E 
 2308      545F545F 
 2308      5F203400 
 2309              	.LASF328:
 2310 018b 5F5F5151 		.ascii	"__QQ_IBIT__ 0\000"
 2310      5F494249 
 2310      545F5F20 
 2310      3000
 2311              	.LASF344:
 2312 0199 5F5F5544 		.ascii	"__UDQ_IBIT__ 0\000"
 2312      515F4942 
 2312      49545F5F 
 2312      203000
 2313              	.LASF481:
 2314 01a8 74656D70 		.ascii	"temp\000"
 2314      00
 2315              	.LASF237:
 2316 01ad 5F5F464C 		.ascii	"__FLT32X_DECIMAL_DIG__ 17\000"
 2316      54333258 
 2316      5F444543 
 2316      494D414C 
 2316      5F444947 
 2317              	.LASF167:
 2318 01c7 5F5F4442 		.ascii	"__DBL_MIN_EXP__ (-1021)\000"
 2318      4C5F4D49 
 2318      4E5F4558 
 2318      505F5F20 
 2318      282D3130 
 2319              	.LASF86:
 2320 01df 5F5F4C4F 		.ascii	"__LONG_LONG_WIDTH__ 64\000"
 2320      4E475F4C 
 2320      4F4E475F 
 2320      57494454 
 2320      485F5F20 
 2321              	.LASF372:
 2322 01f6 5F5F4743 		.ascii	"__GCC_ATOMIC_CHAR16_T_LOCK_FREE 2\000"
 2322      435F4154 
 2322      4F4D4943 
 2322      5F434841 
 2322      5231365F 
 2323              	.LASF451:
 2324 0218 5F5F4152 		.ascii	"__ARM_FEATURE_CDE_COPROC\000"
 2324      4D5F4645 
 2324      41545552 
 2324      455F4344 
 2324      455F434F 
ARM GAS  /tmp/ccXFiNL9.s 			page 44


 2325              	.LASF413:
 2326 0231 5F5F4152 		.ascii	"__ARM_SIZEOF_WCHAR_T 4\000"
 2326      4D5F5349 
 2326      5A454F46 
 2326      5F574348 
 2326      41525F54 
 2327              	.LASF430:
 2328 0248 5F5F4152 		.ascii	"__ARM_FP16_FORMAT_IEEE\000"
 2328      4D5F4650 
 2328      31365F46 
 2328      4F524D41 
 2328      545F4945 
 2329              	.LASF399:
 2330 025f 5F5F4152 		.ascii	"__ARM_FEATURE_COMPLEX\000"
 2330      4D5F4645 
 2330      41545552 
 2330      455F434F 
 2330      4D504C45 
 2331              	.LASF278:
 2332 0275 5F5F4C4C 		.ascii	"__LLFRACT_IBIT__ 0\000"
 2332      46524143 
 2332      545F4942 
 2332      49545F5F 
 2332      203000
 2333              	.LASF172:
 2334 0288 5F5F4442 		.ascii	"__DBL_MAX__ ((double)1.7976931348623157e+308L)\000"
 2334      4C5F4D41 
 2334      585F5F20 
 2334      2828646F 
 2334      75626C65 
 2335              	.LASF254:
 2336 02b7 5F5F5553 		.ascii	"__USFRACT_MIN__ 0.0UHR\000"
 2336      46524143 
 2336      545F4D49 
 2336      4E5F5F20 
 2336      302E3055 
 2337              	.LASF79:
 2338 02ce 5F5F5749 		.ascii	"__WINT_MIN__ 0U\000"
 2338      4E545F4D 
 2338      494E5F5F 
 2338      20305500 
 2339              	.LASF233:
 2340 02de 5F5F464C 		.ascii	"__FLT32X_MIN_EXP__ (-1021)\000"
 2340      54333258 
 2340      5F4D494E 
 2340      5F455850 
 2340      5F5F2028 
 2341              	.LASF119:
 2342 02f9 5F5F5549 		.ascii	"__UINT_LEAST8_MAX__ 0xff\000"
 2342      4E545F4C 
 2342      45415354 
 2342      385F4D41 
 2342      585F5F20 
 2343              	.LASF447:
 2344 0312 5F5F4152 		.ascii	"__ARM_ASM_SYNTAX_UNIFIED__ 1\000"
 2344      4D5F4153 
 2344      4D5F5359 
ARM GAS  /tmp/ccXFiNL9.s 			page 45


 2344      4E544158 
 2344      5F554E49 
 2345              	.LASF476:
 2346 032f 756E7369 		.ascii	"unsigned int\000"
 2346      676E6564 
 2346      20696E74 
 2346      00
 2347              	.LASF392:
 2348 033c 5F5F4152 		.ascii	"__ARM_FEATURE_CRYPTO\000"
 2348      4D5F4645 
 2348      41545552 
 2348      455F4352 
 2348      5950544F 
 2349              	.LASF173:
 2350 0351 5F5F4442 		.ascii	"__DBL_NORM_MAX__ ((double)1.7976931348623157e+308L)"
 2350      4C5F4E4F 
 2350      524D5F4D 
 2350      41585F5F 
 2350      20282864 
 2351 0384 00       		.ascii	"\000"
 2352              	.LASF214:
 2353 0385 5F5F464C 		.ascii	"__FLT32_IS_IEC_60559__ 1\000"
 2353      5433325F 
 2353      49535F49 
 2353      45435F36 
 2353      30353539 
 2354              	.LASF122:
 2355 039e 5F5F5549 		.ascii	"__UINT16_C(c) c\000"
 2355      4E543136 
 2355      5F432863 
 2355      29206300 
 2356              	.LASF24:
 2357 03ae 5F5F5349 		.ascii	"__SIZEOF_SIZE_T__ 4\000"
 2357      5A454F46 
 2357      5F53495A 
 2357      455F545F 
 2357      5F203400 
 2358              	.LASF41:
 2359 03c2 5F5F4348 		.ascii	"__CHAR16_TYPE__ short unsigned int\000"
 2359      41523136 
 2359      5F545950 
 2359      455F5F20 
 2359      73686F72 
 2360              	.LASF23:
 2361 03e5 5F5F5349 		.ascii	"__SIZEOF_LONG_DOUBLE__ 8\000"
 2361      5A454F46 
 2361      5F4C4F4E 
 2361      475F444F 
 2361      55424C45 
 2362              	.LASF197:
 2363 03fe 5F5F4C44 		.ascii	"__LDBL_IS_IEC_60559__ 1\000"
 2363      424C5F49 
 2363      535F4945 
 2363      435F3630 
 2363      3535395F 
 2364              	.LASF127:
 2365 0416 5F5F494E 		.ascii	"__INT_FAST8_MAX__ 0x7fffffff\000"
ARM GAS  /tmp/ccXFiNL9.s 			page 46


 2365      545F4641 
 2365      5354385F 
 2365      4D41585F 
 2365      5F203078 
 2366              	.LASF28:
 2367 0433 5F5F4F52 		.ascii	"__ORDER_BIG_ENDIAN__ 4321\000"
 2367      4445525F 
 2367      4249475F 
 2367      454E4449 
 2367      414E5F5F 
 2368              	.LASF285:
 2369 044d 5F5F554C 		.ascii	"__ULLFRACT_MAX__ 0XFFFFFFFFFFFFFFFFP-64ULLR\000"
 2369      4C465241 
 2369      43545F4D 
 2369      41585F5F 
 2369      20305846 
 2370              	.LASF381:
 2371 0479 5F5F4743 		.ascii	"__GCC_CONSTRUCTIVE_SIZE 64\000"
 2371      435F434F 
 2371      4E535452 
 2371      55435449 
 2371      56455F53 
 2372              	.LASF389:
 2373 0494 5F5F4152 		.ascii	"__ARM_FEATURE_DSP 1\000"
 2373      4D5F4645 
 2373      41545552 
 2373      455F4453 
 2373      50203100 
 2374              	.LASF361:
 2375 04a8 5F5F5554 		.ascii	"__UTA_FBIT__ 64\000"
 2375      415F4642 
 2375      49545F5F 
 2375      20363400 
 2376              	.LASF165:
 2377 04b8 5F5F4442 		.ascii	"__DBL_MANT_DIG__ 53\000"
 2377      4C5F4D41 
 2377      4E545F44 
 2377      49475F5F 
 2377      20353300 
 2378              	.LASF59:
 2379 04cc 5F5F5549 		.ascii	"__UINT_LEAST64_TYPE__ long long unsigned int\000"
 2379      4E545F4C 
 2379      45415354 
 2379      36345F54 
 2379      5950455F 
 2380              	.LASF73:
 2381 04f9 5F5F494E 		.ascii	"__INT_MAX__ 0x7fffffff\000"
 2381      545F4D41 
 2381      585F5F20 
 2381      30783766 
 2381      66666666 
 2382              	.LASF12:
 2383 0510 5F5F4154 		.ascii	"__ATOMIC_RELEASE 3\000"
 2383      4F4D4943 
 2383      5F52454C 
 2383      45415345 
 2383      203300
ARM GAS  /tmp/ccXFiNL9.s 			page 47


 2384              	.LASF36:
 2385 0523 5F5F5054 		.ascii	"__PTRDIFF_TYPE__ int\000"
 2385      52444946 
 2385      465F5459 
 2385      50455F5F 
 2385      20696E74 
 2386              	.LASF366:
 2387 0538 5F5F4348 		.ascii	"__CHAR_UNSIGNED__ 1\000"
 2387      41525F55 
 2387      4E534947 
 2387      4E45445F 
 2387      5F203100 
 2388              	.LASF45:
 2389 054c 5F5F494E 		.ascii	"__INT16_TYPE__ short int\000"
 2389      5431365F 
 2389      54595045 
 2389      5F5F2073 
 2389      686F7274 
 2390              	.LASF396:
 2391 0565 5F5F4152 		.ascii	"__ARM_FEATURE_QRDMX\000"
 2391      4D5F4645 
 2391      41545552 
 2391      455F5152 
 2391      444D5800 
 2392              	.LASF182:
 2393 0579 5F5F4C44 		.ascii	"__LDBL_DIG__ 15\000"
 2393      424C5F44 
 2393      49475F5F 
 2393      20313500 
 2394              	.LASF18:
 2395 0589 5F5F5349 		.ascii	"__SIZEOF_LONG__ 4\000"
 2395      5A454F46 
 2395      5F4C4F4E 
 2395      475F5F20 
 2395      3400
 2396              	.LASF205:
 2397 059b 5F5F464C 		.ascii	"__FLT32_MAX__ 3.4028234663852886e+38F32\000"
 2397      5433325F 
 2397      4D41585F 
 2397      5F20332E 
 2397      34303238 
 2398              	.LASF318:
 2399 05c3 5F5F4C4C 		.ascii	"__LLACCUM_IBIT__ 32\000"
 2399      41434355 
 2399      4D5F4942 
 2399      49545F5F 
 2399      20333200 
 2400              	.LASF10:
 2401 05d7 5F5F4154 		.ascii	"__ATOMIC_SEQ_CST 5\000"
 2401      4F4D4943 
 2401      5F534551 
 2401      5F435354 
 2401      203500
 2402              	.LASF20:
 2403 05ea 5F5F5349 		.ascii	"__SIZEOF_SHORT__ 2\000"
 2403      5A454F46 
 2403      5F53484F 
ARM GAS  /tmp/ccXFiNL9.s 			page 48


 2403      52545F5F 
 2403      203200
 2404              	.LASF107:
 2405 05fd 5F5F494E 		.ascii	"__INT_LEAST8_MAX__ 0x7f\000"
 2405      545F4C45 
 2405      41535438 
 2405      5F4D4158 
 2405      5F5F2030 
 2406              	.LASF52:
 2407 0615 5F5F494E 		.ascii	"__INT_LEAST8_TYPE__ signed char\000"
 2407      545F4C45 
 2407      41535438 
 2407      5F545950 
 2407      455F5F20 
 2408              	.LASF215:
 2409 0635 5F5F464C 		.ascii	"__FLT64_MANT_DIG__ 53\000"
 2409      5436345F 
 2409      4D414E54 
 2409      5F444947 
 2409      5F5F2035 
 2410              	.LASF94:
 2411 064b 5F5F5549 		.ascii	"__UINTMAX_C(c) c ## ULL\000"
 2411      4E544D41 
 2411      585F4328 
 2411      63292063 
 2411      20232320 
 2412              	.LASF30:
 2413 0663 5F5F4259 		.ascii	"__BYTE_ORDER__ __ORDER_LITTLE_ENDIAN__\000"
 2413      54455F4F 
 2413      52444552 
 2413      5F5F205F 
 2413      5F4F5244 
 2414              	.LASF201:
 2415 068a 5F5F464C 		.ascii	"__FLT32_MIN_10_EXP__ (-37)\000"
 2415      5433325F 
 2415      4D494E5F 
 2415      31305F45 
 2415      58505F5F 
 2416              	.LASF268:
 2417 06a5 5F5F4C46 		.ascii	"__LFRACT_IBIT__ 0\000"
 2417      52414354 
 2417      5F494249 
 2417      545F5F20 
 2417      3000
 2418              	.LASF418:
 2419 06b7 5F5F4152 		.ascii	"__ARM_ARCH 7\000"
 2419      4D5F4152 
 2419      43482037 
 2419      00
 2420              	.LASF3:
 2421 06c4 5F5F5354 		.ascii	"__STDC_UTF_32__ 1\000"
 2421      44435F55 
 2421      54465F33 
 2421      325F5F20 
 2421      3100
 2422              	.LASF110:
 2423 06d6 5F5F494E 		.ascii	"__INT_LEAST16_MAX__ 0x7fff\000"
ARM GAS  /tmp/ccXFiNL9.s 			page 49


 2423      545F4C45 
 2423      41535431 
 2423      365F4D41 
 2423      585F5F20 
 2424              	.LASF71:
 2425 06f1 5F5F5343 		.ascii	"__SCHAR_MAX__ 0x7f\000"
 2425      4841525F 
 2425      4D41585F 
 2425      5F203078 
 2425      376600
 2426              	.LASF223:
 2427 0704 5F5F464C 		.ascii	"__FLT64_NORM_MAX__ 1.7976931348623157e+308F64\000"
 2427      5436345F 
 2427      4E4F524D 
 2427      5F4D4158 
 2427      5F5F2031 
 2428              	.LASF410:
 2429 0732 5F5F4152 		.ascii	"__ARM_FEATURE_NUMERIC_MAXMIN\000"
 2429      4D5F4645 
 2429      41545552 
 2429      455F4E55 
 2429      4D455249 
 2430              	.LASF283:
 2431 074f 5F5F554C 		.ascii	"__ULLFRACT_IBIT__ 0\000"
 2431      4C465241 
 2431      43545F49 
 2431      4249545F 
 2431      5F203000 
 2432              	.LASF216:
 2433 0763 5F5F464C 		.ascii	"__FLT64_DIG__ 15\000"
 2433      5436345F 
 2433      4449475F 
 2433      5F203135 
 2433      00
 2434              	.LASF9:
 2435 0774 5F5F4154 		.ascii	"__ATOMIC_RELAXED 0\000"
 2435      4F4D4943 
 2435      5F52454C 
 2435      41584544 
 2435      203000
 2436              	.LASF435:
 2437 0787 5F5F4152 		.ascii	"__ARM_FEATURE_FP16_FML\000"
 2437      4D5F4645 
 2437      41545552 
 2437      455F4650 
 2437      31365F46 
 2438              	.LASF81:
 2439 079e 5F5F5349 		.ascii	"__SIZE_MAX__ 0xffffffffU\000"
 2439      5A455F4D 
 2439      41585F5F 
 2439      20307866 
 2439      66666666 
 2440              	.LASF309:
 2441 07b7 5F5F4C41 		.ascii	"__LACCUM_MIN__ (-0X1P31LK-0X1P31LK)\000"
 2441      4343554D 
 2441      5F4D494E 
 2441      5F5F2028 
ARM GAS  /tmp/ccXFiNL9.s 			page 50


 2441      2D305831 
 2442              	.LASF325:
 2443 07db 5F5F554C 		.ascii	"__ULLACCUM_MAX__ 0XFFFFFFFFFFFFFFFFP-32ULLK\000"
 2443      4C414343 
 2443      554D5F4D 
 2443      41585F5F 
 2443      20305846 
 2444              	.LASF314:
 2445 0807 5F5F554C 		.ascii	"__ULACCUM_MIN__ 0.0ULK\000"
 2445      41434355 
 2445      4D5F4D49 
 2445      4E5F5F20 
 2445      302E3055 
 2446              	.LASF429:
 2447 081e 5F5F4152 		.ascii	"__ARM_FP 4\000"
 2447      4D5F4650 
 2447      203400
 2448              	.LASF161:
 2449 0829 5F5F464C 		.ascii	"__FLT_HAS_INFINITY__ 1\000"
 2449      545F4841 
 2449      535F494E 
 2449      46494E49 
 2449      54595F5F 
 2450              	.LASF208:
 2451 0840 5F5F464C 		.ascii	"__FLT32_EPSILON__ 1.1920928955078125e-7F32\000"
 2451      5433325F 
 2451      45505349 
 2451      4C4F4E5F 
 2451      5F20312E 
 2452              	.LASF360:
 2453 086b 5F5F5544 		.ascii	"__UDA_IBIT__ 32\000"
 2453      415F4942 
 2453      49545F5F 
 2453      20333200 
 2454              	.LASF402:
 2455 087b 5F5F4152 		.ascii	"__ARM_FEATURE_BTI\000"
 2455      4D5F4645 
 2455      41545552 
 2455      455F4254 
 2455      4900
 2456              	.LASF63:
 2457 088d 5F5F494E 		.ascii	"__INT_FAST64_TYPE__ long long int\000"
 2457      545F4641 
 2457      53543634 
 2457      5F545950 
 2457      455F5F20 
 2458              	.LASF108:
 2459 08af 5F5F494E 		.ascii	"__INT8_C(c) c\000"
 2459      54385F43 
 2459      28632920 
 2459      6300
 2460              	.LASF213:
 2461 08bd 5F5F4650 		.ascii	"__FP_FAST_FMAF32 1\000"
 2461      5F464153 
 2461      545F464D 
 2461      41463332 
 2461      203100
ARM GAS  /tmp/ccXFiNL9.s 			page 51


 2462              	.LASF400:
 2463 08d0 5F5F4152 		.ascii	"__ARM_32BIT_STATE 1\000"
 2463      4D5F3332 
 2463      4249545F 
 2463      53544154 
 2463      45203100 
 2464              	.LASF444:
 2465 08e4 5F5F4644 		.ascii	"__FDPIC__\000"
 2465      5049435F 
 2465      5F00
 2466              	.LASF112:
 2467 08ee 5F5F494E 		.ascii	"__INT_LEAST16_WIDTH__ 16\000"
 2467      545F4C45 
 2467      41535431 
 2467      365F5749 
 2467      4454485F 
 2468              	.LASF431:
 2469 0907 5F5F4152 		.ascii	"__ARM_FP16_FORMAT_ALTERNATIVE\000"
 2469      4D5F4650 
 2469      31365F46 
 2469      4F524D41 
 2469      545F414C 
 2470              	.LASF324:
 2471 0925 5F5F554C 		.ascii	"__ULLACCUM_MIN__ 0.0ULLK\000"
 2471      4C414343 
 2471      554D5F4D 
 2471      494E5F5F 
 2471      20302E30 
 2472              	.LASF398:
 2473 093e 5F5F4152 		.ascii	"__ARM_FEATURE_DOTPROD\000"
 2473      4D5F4645 
 2473      41545552 
 2473      455F444F 
 2473      5450524F 
 2474              	.LASF438:
 2475 0954 5F5F4152 		.ascii	"__ARM_NEON\000"
 2475      4D5F4E45 
 2475      4F4E00
 2476              	.LASF394:
 2477 095f 5F5F4152 		.ascii	"__ARM_FEATURE_SHA2\000"
 2477      4D5F4645 
 2477      41545552 
 2477      455F5348 
 2477      413200
 2478              	.LASF406:
 2479 0972 5F5F4152 		.ascii	"__ARM_FEATURE_CMSE\000"
 2479      4D5F4645 
 2479      41545552 
 2479      455F434D 
 2479      534500
 2480              	.LASF69:
 2481 0985 5F5F5549 		.ascii	"__UINTPTR_TYPE__ unsigned int\000"
 2481      4E545054 
 2481      525F5459 
 2481      50455F5F 
 2481      20756E73 
 2482              	.LASF490:
ARM GAS  /tmp/ccXFiNL9.s 			page 52


 2483 09a3 70726573 		.ascii	"preset\000"
 2483      657400
 2484              	.LASF210:
 2485 09aa 5F5F464C 		.ascii	"__FLT32_HAS_DENORM__ 1\000"
 2485      5433325F 
 2485      4841535F 
 2485      44454E4F 
 2485      524D5F5F 
 2486              	.LASF226:
 2487 09c1 5F5F464C 		.ascii	"__FLT64_DENORM_MIN__ 4.9406564584124654e-324F64\000"
 2487      5436345F 
 2487      44454E4F 
 2487      524D5F4D 
 2487      494E5F5F 
 2488              	.LASF367:
 2489 09f1 5F5F4743 		.ascii	"__GCC_HAVE_SYNC_COMPARE_AND_SWAP_1 1\000"
 2489      435F4841 
 2489      56455F53 
 2489      594E435F 
 2489      434F4D50 
 2490              	.LASF350:
 2491 0a16 5F5F5341 		.ascii	"__SA_IBIT__ 16\000"
 2491      5F494249 
 2491      545F5F20 
 2491      313600
 2492              	.LASF280:
 2493 0a25 5F5F4C4C 		.ascii	"__LLFRACT_MAX__ 0X7FFFFFFFFFFFFFFFP-63LLR\000"
 2493      46524143 
 2493      545F4D41 
 2493      585F5F20 
 2493      30583746 
 2494              	.LASF133:
 2495 0a4f 5F5F494E 		.ascii	"__INT_FAST64_MAX__ 0x7fffffffffffffffLL\000"
 2495      545F4641 
 2495      53543634 
 2495      5F4D4158 
 2495      5F5F2030 
 2496              	.LASF163:
 2497 0a77 5F5F4650 		.ascii	"__FP_FAST_FMAF 1\000"
 2497      5F464153 
 2497      545F464D 
 2497      41462031 
 2497      00
 2498              	.LASF478:
 2499 0a88 666C6F61 		.ascii	"float\000"
 2499      7400
 2500              	.LASF149:
 2501 0a8e 5F5F464C 		.ascii	"__FLT_DIG__ 6\000"
 2501      545F4449 
 2501      475F5F20 
 2501      3600
 2502              	.LASF175:
 2503 0a9c 5F5F4442 		.ascii	"__DBL_EPSILON__ ((double)2.2204460492503131e-16L)\000"
 2503      4C5F4550 
 2503      53494C4F 
 2503      4E5F5F20 
 2503      2828646F 
ARM GAS  /tmp/ccXFiNL9.s 			page 53


 2504              	.LASF8:
 2505 0ace 5F5F5645 		.ascii	"__VERSION__ \"14.1.0\"\000"
 2505      5253494F 
 2505      4E5F5F20 
 2505      2231342E 
 2505      312E3022 
 2506              	.LASF368:
 2507 0ae3 5F5F4743 		.ascii	"__GCC_HAVE_SYNC_COMPARE_AND_SWAP_2 1\000"
 2507      435F4841 
 2507      56455F53 
 2507      594E435F 
 2507      434F4D50 
 2508              	.LASF351:
 2509 0b08 5F5F4441 		.ascii	"__DA_FBIT__ 31\000"
 2509      5F464249 
 2509      545F5F20 
 2509      333100
 2510              	.LASF412:
 2511 0b17 5F5F4152 		.ascii	"__ARM_SIZEOF_MINIMAL_ENUM 1\000"
 2511      4D5F5349 
 2511      5A454F46 
 2511      5F4D494E 
 2511      494D414C 
 2512              	.LASF458:
 2513 0b33 5F5F5553 		.ascii	"__USES_INITFINI__ 1\000"
 2513      45535F49 
 2513      4E495446 
 2513      494E495F 
 2513      5F203100 
 2514              	.LASF142:
 2515 0b47 5F5F4743 		.ascii	"__GCC_IEC_559 0\000"
 2515      435F4945 
 2515      435F3535 
 2515      39203000 
 2516              	.LASF296:
 2517 0b57 5F5F5553 		.ascii	"__USACCUM_EPSILON__ 0x1P-8UHK\000"
 2517      41434355 
 2517      4D5F4550 
 2517      53494C4F 
 2517      4E5F5F20 
 2518              	.LASF80:
 2519 0b75 5F5F5054 		.ascii	"__PTRDIFF_MAX__ 0x7fffffff\000"
 2519      52444946 
 2519      465F4D41 
 2519      585F5F20 
 2519      30783766 
 2520              	.LASF212:
 2521 0b90 5F5F464C 		.ascii	"__FLT32_HAS_QUIET_NAN__ 1\000"
 2521      5433325F 
 2521      4841535F 
 2521      51554945 
 2521      545F4E41 
 2522              	.LASF315:
 2523 0baa 5F5F554C 		.ascii	"__ULACCUM_MAX__ 0XFFFFFFFFFFFFFFFFP-32ULK\000"
 2523      41434355 
 2523      4D5F4D41 
 2523      585F5F20 
ARM GAS  /tmp/ccXFiNL9.s 			page 54


 2523      30584646 
 2524              	.LASF265:
 2525 0bd4 5F5F5546 		.ascii	"__UFRACT_MAX__ 0XFFFFP-16UR\000"
 2525      52414354 
 2525      5F4D4158 
 2525      5F5F2030 
 2525      58464646 
 2526              	.LASF250:
 2527 0bf0 5F5F5346 		.ascii	"__SFRACT_MAX__ 0X7FP-7HR\000"
 2527      52414354 
 2527      5F4D4158 
 2527      5F5F2030 
 2527      58374650 
 2528              	.LASF5:
 2529 0c09 5F5F474E 		.ascii	"__GNUC__ 14\000"
 2529      55435F5F 
 2529      20313400 
 2530              	.LASF464:
 2531 0c15 6C6F6E67 		.ascii	"long long unsigned int\000"
 2531      206C6F6E 
 2531      6720756E 
 2531      7369676E 
 2531      65642069 
 2532              	.LASF102:
 2533 0c2c 5F5F494E 		.ascii	"__INT64_MAX__ 0x7fffffffffffffffLL\000"
 2533      5436345F 
 2533      4D41585F 
 2533      5F203078 
 2533      37666666 
 2534              	.LASF99:
 2535 0c4f 5F5F494E 		.ascii	"__INT8_MAX__ 0x7f\000"
 2535      54385F4D 
 2535      41585F5F 
 2535      20307837 
 2535      6600
 2536              	.LASF276:
 2537 0c61 5F5F554C 		.ascii	"__ULFRACT_EPSILON__ 0x1P-32ULR\000"
 2537      46524143 
 2537      545F4550 
 2537      53494C4F 
 2537      4E5F5F20 
 2538              	.LASF54:
 2539 0c80 5F5F494E 		.ascii	"__INT_LEAST32_TYPE__ long int\000"
 2539      545F4C45 
 2539      41535433 
 2539      325F5459 
 2539      50455F5F 
 2540              	.LASF273:
 2541 0c9e 5F5F554C 		.ascii	"__ULFRACT_IBIT__ 0\000"
 2541      46524143 
 2541      545F4942 
 2541      49545F5F 
 2541      203000
 2542              	.LASF317:
 2543 0cb1 5F5F4C4C 		.ascii	"__LLACCUM_FBIT__ 31\000"
 2543      41434355 
 2543      4D5F4642 
ARM GAS  /tmp/ccXFiNL9.s 			page 55


 2543      49545F5F 
 2543      20333100 
 2544              	.LASF125:
 2545 0cc5 5F5F5549 		.ascii	"__UINT_LEAST64_MAX__ 0xffffffffffffffffULL\000"
 2545      4E545F4C 
 2545      45415354 
 2545      36345F4D 
 2545      41585F5F 
 2546              	.LASF147:
 2547 0cf0 5F5F464C 		.ascii	"__FLT_RADIX__ 2\000"
 2547      545F5241 
 2547      4449585F 
 2547      5F203200 
 2548              	.LASF489:
 2549 0d00 6368616E 		.ascii	"changePresetStar\000"
 2549      67655072 
 2549      65736574 
 2549      53746172 
 2549      00
 2550              	.LASF284:
 2551 0d11 5F5F554C 		.ascii	"__ULLFRACT_MIN__ 0.0ULLR\000"
 2551      4C465241 
 2551      43545F4D 
 2551      494E5F5F 
 2551      20302E30 
 2552              	.LASF179:
 2553 0d2a 5F5F4442 		.ascii	"__DBL_HAS_QUIET_NAN__ 1\000"
 2553      4C5F4841 
 2553      535F5155 
 2553      4945545F 
 2553      4E414E5F 
 2554              	.LASF304:
 2555 0d42 5F5F5541 		.ascii	"__UACCUM_MIN__ 0.0UK\000"
 2555      4343554D 
 2555      5F4D494E 
 2555      5F5F2030 
 2555      2E30554B 
 2556              	.LASF271:
 2557 0d57 5F5F4C46 		.ascii	"__LFRACT_EPSILON__ 0x1P-31LR\000"
 2557      52414354 
 2557      5F455053 
 2557      494C4F4E 
 2557      5F5F2030 
 2558              	.LASF60:
 2559 0d74 5F5F494E 		.ascii	"__INT_FAST8_TYPE__ int\000"
 2559      545F4641 
 2559      5354385F 
 2559      54595045 
 2559      5F5F2069 
 2560              	.LASF228:
 2561 0d8b 5F5F464C 		.ascii	"__FLT64_HAS_INFINITY__ 1\000"
 2561      5436345F 
 2561      4841535F 
 2561      494E4649 
 2561      4E495459 
 2562              	.LASF242:
 2563 0da4 5F5F464C 		.ascii	"__FLT32X_DENORM_MIN__ 4.9406564584124654e-324F32x\000"
ARM GAS  /tmp/ccXFiNL9.s 			page 56


 2563      54333258 
 2563      5F44454E 
 2563      4F524D5F 
 2563      4D494E5F 
 2564              	.LASF433:
 2565 0dd6 5F5F4152 		.ascii	"__ARM_FEATURE_FP16_SCALAR_ARITHMETIC\000"
 2565      4D5F4645 
 2565      41545552 
 2565      455F4650 
 2565      31365F53 
 2566              	.LASF287:
 2567 0dfb 5F5F5341 		.ascii	"__SACCUM_FBIT__ 7\000"
 2567      4343554D 
 2567      5F464249 
 2567      545F5F20 
 2567      3700
 2568              	.LASF37:
 2569 0e0d 5F5F5743 		.ascii	"__WCHAR_TYPE__ unsigned int\000"
 2569      4841525F 
 2569      54595045 
 2569      5F5F2075 
 2569      6E736967 
 2570              	.LASF174:
 2571 0e29 5F5F4442 		.ascii	"__DBL_MIN__ ((double)2.2250738585072014e-308L)\000"
 2571      4C5F4D49 
 2571      4E5F5F20 
 2571      2828646F 
 2571      75626C65 
 2572              	.LASF224:
 2573 0e58 5F5F464C 		.ascii	"__FLT64_MIN__ 2.2250738585072014e-308F64\000"
 2573      5436345F 
 2573      4D494E5F 
 2573      5F20322E 
 2573      32323530 
 2574              	.LASF259:
 2575 0e81 5F5F4652 		.ascii	"__FRACT_MIN__ (-0.5R-0.5R)\000"
 2575      4143545F 
 2575      4D494E5F 
 2575      5F20282D 
 2575      302E3552 
 2576              	.LASF376:
 2577 0e9c 5F5F4743 		.ascii	"__GCC_ATOMIC_INT_LOCK_FREE 2\000"
 2577      435F4154 
 2577      4F4D4943 
 2577      5F494E54 
 2577      5F4C4F43 
 2578              	.LASF91:
 2579 0eb9 5F5F494E 		.ascii	"__INTMAX_MAX__ 0x7fffffffffffffffLL\000"
 2579      544D4158 
 2579      5F4D4158 
 2579      5F5F2030 
 2579      78376666 
 2580              	.LASF306:
 2581 0edd 5F5F5541 		.ascii	"__UACCUM_EPSILON__ 0x1P-16UK\000"
 2581      4343554D 
 2581      5F455053 
 2581      494C4F4E 
ARM GAS  /tmp/ccXFiNL9.s 			page 57


 2581      5F5F2030 
 2582              	.LASF298:
 2583 0efa 5F5F4143 		.ascii	"__ACCUM_IBIT__ 16\000"
 2583      43554D5F 
 2583      49424954 
 2583      5F5F2031 
 2583      3600
 2584              	.LASF193:
 2585 0f0c 5F5F4C44 		.ascii	"__LDBL_DENORM_MIN__ 4.9406564584124654e-324L\000"
 2585      424C5F44 
 2585      454E4F52 
 2585      4D5F4D49 
 2585      4E5F5F20 
 2586              	.LASF220:
 2587 0f39 5F5F464C 		.ascii	"__FLT64_MAX_10_EXP__ 308\000"
 2587      5436345F 
 2587      4D41585F 
 2587      31305F45 
 2587      58505F5F 
 2588              	.LASF288:
 2589 0f52 5F5F5341 		.ascii	"__SACCUM_IBIT__ 8\000"
 2589      4343554D 
 2589      5F494249 
 2589      545F5F20 
 2589      3800
 2590              	.LASF388:
 2591 0f64 5F5F5349 		.ascii	"__SIZEOF_PTRDIFF_T__ 4\000"
 2591      5A454F46 
 2591      5F505452 
 2591      44494646 
 2591      5F545F5F 
 2592              	.LASF249:
 2593 0f7b 5F5F5346 		.ascii	"__SFRACT_MIN__ (-0.5HR-0.5HR)\000"
 2593      52414354 
 2593      5F4D494E 
 2593      5F5F2028 
 2593      2D302E35 
 2594              	.LASF358:
 2595 0f99 5F5F5553 		.ascii	"__USA_IBIT__ 16\000"
 2595      415F4942 
 2595      49545F5F 
 2595      20313600 
 2596              	.LASF445:
 2597 0fa9 5F5F4152 		.ascii	"__ARM_ARCH_EXT_IDIV__ 1\000"
 2597      4D5F4152 
 2597      43485F45 
 2597      58545F49 
 2597      4449565F 
 2598              	.LASF395:
 2599 0fc1 5F5F4152 		.ascii	"__ARM_FEATURE_UNALIGNED 1\000"
 2599      4D5F4645 
 2599      41545552 
 2599      455F554E 
 2599      414C4947 
 2600              	.LASF21:
 2601 0fdb 5F5F5349 		.ascii	"__SIZEOF_FLOAT__ 4\000"
 2601      5A454F46 
ARM GAS  /tmp/ccXFiNL9.s 			page 58


 2601      5F464C4F 
 2601      41545F5F 
 2601      203400
 2602              	.LASF124:
 2603 0fee 5F5F5549 		.ascii	"__UINT32_C(c) c ## UL\000"
 2603      4E543332 
 2603      5F432863 
 2603      29206320 
 2603      23232055 
 2604              	.LASF359:
 2605 1004 5F5F5544 		.ascii	"__UDA_FBIT__ 32\000"
 2605      415F4642 
 2605      49545F5F 
 2605      20333200 
 2606              	.LASF423:
 2607 1014 5F5F5448 		.ascii	"__THUMBEL__ 1\000"
 2607      554D4245 
 2607      4C5F5F20 
 2607      3100
 2608              	.LASF352:
 2609 1022 5F5F4441 		.ascii	"__DA_IBIT__ 32\000"
 2609      5F494249 
 2609      545F5F20 
 2609      333200
 2610              	.LASF26:
 2611 1031 5F5F4249 		.ascii	"__BIGGEST_ALIGNMENT__ 8\000"
 2611      47474553 
 2611      545F414C 
 2611      49474E4D 
 2611      454E545F 
 2612              	.LASF308:
 2613 1049 5F5F4C41 		.ascii	"__LACCUM_IBIT__ 32\000"
 2613      4343554D 
 2613      5F494249 
 2613      545F5F20 
 2613      333200
 2614              	.LASF255:
 2615 105c 5F5F5553 		.ascii	"__USFRACT_MAX__ 0XFFP-8UHR\000"
 2615      46524143 
 2615      545F4D41 
 2615      585F5F20 
 2615      30584646 
 2616              	.LASF135:
 2617 1077 5F5F5549 		.ascii	"__UINT_FAST8_MAX__ 0xffffffffU\000"
 2617      4E545F46 
 2617      41535438 
 2617      5F4D4158 
 2617      5F5F2030 
 2618              	.LASF27:
 2619 1096 5F5F4F52 		.ascii	"__ORDER_LITTLE_ENDIAN__ 1234\000"
 2619      4445525F 
 2619      4C495454 
 2619      4C455F45 
 2619      4E444941 
 2620              	.LASF383:
 2621 10b3 5F5F4841 		.ascii	"__HAVE_SPECULATION_SAFE_VALUE 1\000"
 2621      56455F53 
ARM GAS  /tmp/ccXFiNL9.s 			page 59


 2621      50454355 
 2621      4C415449 
 2621      4F4E5F53 
 2622              	.LASF319:
 2623 10d3 5F5F4C4C 		.ascii	"__LLACCUM_MIN__ (-0X1P31LLK-0X1P31LLK)\000"
 2623      41434355 
 2623      4D5F4D49 
 2623      4E5F5F20 
 2623      282D3058 
 2624              	.LASF15:
 2625 10fa 5F5F4F50 		.ascii	"__OPTIMIZE__ 1\000"
 2625      54494D49 
 2625      5A455F5F 
 2625      203100
 2626              	.LASF349:
 2627 1109 5F5F5341 		.ascii	"__SA_FBIT__ 15\000"
 2627      5F464249 
 2627      545F5F20 
 2627      313500
 2628              	.LASF218:
 2629 1118 5F5F464C 		.ascii	"__FLT64_MIN_10_EXP__ (-307)\000"
 2629      5436345F 
 2629      4D494E5F 
 2629      31305F45 
 2629      58505F5F 
 2630              	.LASF6:
 2631 1134 5F5F474E 		.ascii	"__GNUC_MINOR__ 1\000"
 2631      55435F4D 
 2631      494E4F52 
 2631      5F5F2031 
 2631      00
 2632              	.LASF403:
 2633 1145 5F5F4152 		.ascii	"__ARM_FEATURE_BTI_DEFAULT\000"
 2633      4D5F4645 
 2633      41545552 
 2633      455F4254 
 2633      495F4445 
 2634              	.LASF291:
 2635 115f 5F5F5341 		.ascii	"__SACCUM_EPSILON__ 0x1P-7HK\000"
 2635      4343554D 
 2635      5F455053 
 2635      494C4F4E 
 2635      5F5F2030 
 2636              	.LASF404:
 2637 117b 5F5F4152 		.ascii	"__ARM_FEATURE_PAC_DEFAULT\000"
 2637      4D5F4645 
 2637      41545552 
 2637      455F5041 
 2637      435F4445 
 2638              	.LASF61:
 2639 1195 5F5F494E 		.ascii	"__INT_FAST16_TYPE__ int\000"
 2639      545F4641 
 2639      53543136 
 2639      5F545950 
 2639      455F5F20 
 2640              	.LASF204:
 2641 11ad 5F5F464C 		.ascii	"__FLT32_DECIMAL_DIG__ 9\000"
ARM GAS  /tmp/ccXFiNL9.s 			page 60


 2641      5433325F 
 2641      44454349 
 2641      4D414C5F 
 2641      4449475F 
 2642              	.LASF49:
 2643 11c5 5F5F5549 		.ascii	"__UINT16_TYPE__ short unsigned int\000"
 2643      4E543136 
 2643      5F545950 
 2643      455F5F20 
 2643      73686F72 
 2644              	.LASF467:
 2645 11e8 54524150 		.ascii	"TRAPPIST1\000"
 2645      50495354 
 2645      3100
 2646              	.LASF87:
 2647 11f2 5F5F5743 		.ascii	"__WCHAR_WIDTH__ 32\000"
 2647      4841525F 
 2647      57494454 
 2647      485F5F20 
 2647      333200
 2648              	.LASF365:
 2649 1205 5F5F474E 		.ascii	"__GNUC_STDC_INLINE__ 1\000"
 2649      55435F53 
 2649      5444435F 
 2649      494E4C49 
 2649      4E455F5F 
 2650              	.LASF340:
 2651 121c 5F5F5548 		.ascii	"__UHQ_IBIT__ 0\000"
 2651      515F4942 
 2651      49545F5F 
 2651      203000
 2652              	.LASF262:
 2653 122b 5F5F5546 		.ascii	"__UFRACT_FBIT__ 16\000"
 2653      52414354 
 2653      5F464249 
 2653      545F5F20 
 2653      313600
 2654              	.LASF409:
 2655 123e 5F5F4152 		.ascii	"__ARM_FEATURE_CLZ 1\000"
 2655      4D5F4645 
 2655      41545552 
 2655      455F434C 
 2655      5A203100 
 2656              	.LASF75:
 2657 1252 5F5F4C4F 		.ascii	"__LONG_LONG_MAX__ 0x7fffffffffffffffLL\000"
 2657      4E475F4C 
 2657      4F4E475F 
 2657      4D41585F 
 2657      5F203078 
 2658              	.LASF57:
 2659 1279 5F5F5549 		.ascii	"__UINT_LEAST16_TYPE__ short unsigned int\000"
 2659      4E545F4C 
 2659      45415354 
 2659      31365F54 
 2659      5950455F 
 2660              	.LASF153:
 2661 12a2 5F5F464C 		.ascii	"__FLT_MAX_10_EXP__ 38\000"
ARM GAS  /tmp/ccXFiNL9.s 			page 61


 2661      545F4D41 
 2661      585F3130 
 2661      5F455850 
 2661      5F5F2033 
 2662              	.LASF320:
 2663 12b8 5F5F4C4C 		.ascii	"__LLACCUM_MAX__ 0X7FFFFFFFFFFFFFFFP-31LLK\000"
 2663      41434355 
 2663      4D5F4D41 
 2663      585F5F20 
 2663      30583746 
 2664              	.LASF321:
 2665 12e2 5F5F4C4C 		.ascii	"__LLACCUM_EPSILON__ 0x1P-31LLK\000"
 2665      41434355 
 2665      4D5F4550 
 2665      53494C4F 
 2665      4E5F5F20 
 2666              	.LASF448:
 2667 1301 5F5F4152 		.ascii	"__ARM_FEATURE_COPROC\000"
 2667      4D5F4645 
 2667      41545552 
 2667      455F434F 
 2667      50524F43 
 2668              	.LASF480:
 2669 1316 73746172 		.ascii	"starLums\000"
 2669      4C756D73 
 2669      00
 2670              	.LASF274:
 2671 131f 5F5F554C 		.ascii	"__ULFRACT_MIN__ 0.0ULR\000"
 2671      46524143 
 2671      545F4D49 
 2671      4E5F5F20 
 2671      302E3055 
 2672              	.LASF148:
 2673 1336 5F5F464C 		.ascii	"__FLT_MANT_DIG__ 24\000"
 2673      545F4D41 
 2673      4E545F44 
 2673      49475F5F 
 2673      20323400 
 2674              	.LASF417:
 2675 134a 5F5F4152 		.ascii	"__ARM_ARCH\000"
 2675      4D5F4152 
 2675      434800
 2676              	.LASF221:
 2677 1355 5F5F464C 		.ascii	"__FLT64_DECIMAL_DIG__ 17\000"
 2677      5436345F 
 2677      44454349 
 2677      4D414C5F 
 2677      4449475F 
 2678              	.LASF363:
 2679 136e 5F5F5245 		.ascii	"__REGISTER_PREFIX__ \000"
 2679      47495354 
 2679      45525F50 
 2679      52454649 
 2679      585F5F20 
 2680              	.LASF200:
 2681 1383 5F5F464C 		.ascii	"__FLT32_MIN_EXP__ (-125)\000"
 2681      5433325F 
ARM GAS  /tmp/ccXFiNL9.s 			page 62


 2681      4D494E5F 
 2681      4558505F 
 2681      5F20282D 
 2682              	.LASF303:
 2683 139c 5F5F5541 		.ascii	"__UACCUM_IBIT__ 16\000"
 2683      4343554D 
 2683      5F494249 
 2683      545F5F20 
 2683      313600
 2684              	.LASF136:
 2685 13af 5F5F5549 		.ascii	"__UINT_FAST16_MAX__ 0xffffffffU\000"
 2685      4E545F46 
 2685      41535431 
 2685      365F4D41 
 2685      585F5F20 
 2686              	.LASF65:
 2687 13cf 5F5F5549 		.ascii	"__UINT_FAST16_TYPE__ unsigned int\000"
 2687      4E545F46 
 2687      41535431 
 2687      365F5459 
 2687      50455F5F 
 2688              	.LASF168:
 2689 13f1 5F5F4442 		.ascii	"__DBL_MIN_10_EXP__ (-307)\000"
 2689      4C5F4D49 
 2689      4E5F3130 
 2689      5F455850 
 2689      5F5F2028 
 2690              	.LASF293:
 2691 140b 5F5F5553 		.ascii	"__USACCUM_IBIT__ 8\000"
 2691      41434355 
 2691      4D5F4942 
 2691      49545F5F 
 2691      203800
 2692              	.LASF440:
 2693 141e 5F5F5448 		.ascii	"__THUMB_INTERWORK__ 1\000"
 2693      554D425F 
 2693      494E5445 
 2693      52574F52 
 2693      4B5F5F20 
 2694              	.LASF257:
 2695 1434 5F5F4652 		.ascii	"__FRACT_FBIT__ 15\000"
 2695      4143545F 
 2695      46424954 
 2695      5F5F2031 
 2695      3500
 2696              	.LASF70:
 2697 1446 5F5F4758 		.ascii	"__GXX_ABI_VERSION 1019\000"
 2697      585F4142 
 2697      495F5645 
 2697      5253494F 
 2697      4E203130 
 2698              	.LASF227:
 2699 145d 5F5F464C 		.ascii	"__FLT64_HAS_DENORM__ 1\000"
 2699      5436345F 
 2699      4841535F 
 2699      44454E4F 
 2699      524D5F5F 
ARM GAS  /tmp/ccXFiNL9.s 			page 63


 2700              	.LASF176:
 2701 1474 5F5F4442 		.ascii	"__DBL_DENORM_MIN__ ((double)4.9406564584124654e-324"
 2701      4C5F4445 
 2701      4E4F524D 
 2701      5F4D494E 
 2701      5F5F2028 
 2702 14a7 4C2900   		.ascii	"L)\000"
 2703              	.LASF144:
 2704 14aa 5F5F464C 		.ascii	"__FLT_EVAL_METHOD__ 0\000"
 2704      545F4556 
 2704      414C5F4D 
 2704      4554484F 
 2704      445F5F20 
 2705              	.LASF243:
 2706 14c0 5F5F464C 		.ascii	"__FLT32X_HAS_DENORM__ 1\000"
 2706      54333258 
 2706      5F484153 
 2706      5F44454E 
 2706      4F524D5F 
 2707              	.LASF116:
 2708 14d8 5F5F494E 		.ascii	"__INT_LEAST64_MAX__ 0x7fffffffffffffffLL\000"
 2708      545F4C45 
 2708      41535436 
 2708      345F4D41 
 2708      585F5F20 
 2709              	.LASF466:
 2710 1501 50726F78 		.ascii	"ProximaCentauri\000"
 2710      696D6143 
 2710      656E7461 
 2710      75726900 
 2711              	.LASF374:
 2712 1511 5F5F4743 		.ascii	"__GCC_ATOMIC_WCHAR_T_LOCK_FREE 2\000"
 2712      435F4154 
 2712      4F4D4943 
 2712      5F574348 
 2712      41525F54 
 2713              	.LASF313:
 2714 1532 5F5F554C 		.ascii	"__ULACCUM_IBIT__ 32\000"
 2714      41434355 
 2714      4D5F4942 
 2714      49545F5F 
 2714      20333200 
 2715              	.LASF277:
 2716 1546 5F5F4C4C 		.ascii	"__LLFRACT_FBIT__ 63\000"
 2716      46524143 
 2716      545F4642 
 2716      49545F5F 
 2716      20363300 
 2717              	.LASF109:
 2718 155a 5F5F494E 		.ascii	"__INT_LEAST8_WIDTH__ 8\000"
 2718      545F4C45 
 2718      41535438 
 2718      5F574944 
 2718      54485F5F 
 2719              	.LASF357:
 2720 1571 5F5F5553 		.ascii	"__USA_FBIT__ 16\000"
 2720      415F4642 
ARM GAS  /tmp/ccXFiNL9.s 			page 64


 2720      49545F5F 
 2720      20313600 
 2721              	.LASF103:
 2722 1581 5F5F5549 		.ascii	"__UINT8_MAX__ 0xff\000"
 2722      4E54385F 
 2722      4D41585F 
 2722      5F203078 
 2722      666600
 2723              	.LASF104:
 2724 1594 5F5F5549 		.ascii	"__UINT16_MAX__ 0xffff\000"
 2724      4E543136 
 2724      5F4D4158 
 2724      5F5F2030 
 2724      78666666 
 2725              	.LASF407:
 2726 15aa 5F5F4152 		.ascii	"__ARM_FEATURE_LDREX\000"
 2726      4D5F4645 
 2726      41545552 
 2726      455F4C44 
 2726      52455800 
 2727              	.LASF95:
 2728 15be 5F5F494E 		.ascii	"__INTMAX_WIDTH__ 64\000"
 2728      544D4158 
 2728      5F574944 
 2728      54485F5F 
 2728      20363400 
 2729              	.LASF450:
 2730 15d2 5F5F4152 		.ascii	"__ARM_FEATURE_CDE\000"
 2730      4D5F4645 
 2730      41545552 
 2730      455F4344 
 2730      4500
 2731              	.LASF267:
 2732 15e4 5F5F4C46 		.ascii	"__LFRACT_FBIT__ 31\000"
 2732      52414354 
 2732      5F464249 
 2732      545F5F20 
 2732      333100
 2733              	.LASF53:
 2734 15f7 5F5F494E 		.ascii	"__INT_LEAST16_TYPE__ short int\000"
 2734      545F4C45 
 2734      41535431 
 2734      365F5459 
 2734      50455F5F 
 2735              	.LASF202:
 2736 1616 5F5F464C 		.ascii	"__FLT32_MAX_EXP__ 128\000"
 2736      5433325F 
 2736      4D41585F 
 2736      4558505F 
 2736      5F203132 
 2737              	.LASF166:
 2738 162c 5F5F4442 		.ascii	"__DBL_DIG__ 15\000"
 2738      4C5F4449 
 2738      475F5F20 
 2738      313500
 2739              	.LASF426:
 2740 163b 5F5F4152 		.ascii	"__ARMEL__ 1\000"
ARM GAS  /tmp/ccXFiNL9.s 			page 65


 2740      4D454C5F 
 2740      5F203100 
 2741              	.LASF424:
 2742 1647 5F5F4152 		.ascii	"__ARM_ARCH_ISA_THUMB\000"
 2742      4D5F4152 
 2742      43485F49 
 2742      53415F54 
 2742      48554D42 
 2743              	.LASF307:
 2744 165c 5F5F4C41 		.ascii	"__LACCUM_FBIT__ 31\000"
 2744      4343554D 
 2744      5F464249 
 2744      545F5F20 
 2744      333100
 2745              	.LASF346:
 2746 166f 5F5F5554 		.ascii	"__UTQ_IBIT__ 0\000"
 2746      515F4942 
 2746      49545F5F 
 2746      203000
 2747              	.LASF157:
 2748 167e 5F5F464C 		.ascii	"__FLT_MIN__ 1.1754943508222875e-38F\000"
 2748      545F4D49 
 2748      4E5F5F20 
 2748      312E3137 
 2748      35343934 
 2749              	.LASF377:
 2750 16a2 5F5F4743 		.ascii	"__GCC_ATOMIC_LONG_LOCK_FREE 2\000"
 2750      435F4154 
 2750      4F4D4943 
 2750      5F4C4F4E 
 2750      475F4C4F 
 2751              	.LASF232:
 2752 16c0 5F5F464C 		.ascii	"__FLT32X_DIG__ 15\000"
 2752      54333258 
 2752      5F444947 
 2752      5F5F2031 
 2752      3500
 2753              	.LASF301:
 2754 16d2 5F5F4143 		.ascii	"__ACCUM_EPSILON__ 0x1P-15K\000"
 2754      43554D5F 
 2754      45505349 
 2754      4C4F4E5F 
 2754      5F203078 
 2755              	.LASF343:
 2756 16ed 5F5F5544 		.ascii	"__UDQ_FBIT__ 64\000"
 2756      515F4642 
 2756      49545F5F 
 2756      20363400 
 2757              	.LASF231:
 2758 16fd 5F5F464C 		.ascii	"__FLT32X_MANT_DIG__ 53\000"
 2758      54333258 
 2758      5F4D414E 
 2758      545F4449 
 2758      475F5F20 
 2759              	.LASF348:
 2760 1714 5F5F4841 		.ascii	"__HA_IBIT__ 8\000"
 2760      5F494249 
ARM GAS  /tmp/ccXFiNL9.s 			page 66


 2760      545F5F20 
 2760      3800
 2761              	.LASF425:
 2762 1722 5F5F4152 		.ascii	"__ARM_ARCH_ISA_THUMB 2\000"
 2762      4D5F4152 
 2762      43485F49 
 2762      53415F54 
 2762      48554D42 
 2763              	.LASF199:
 2764 1739 5F5F464C 		.ascii	"__FLT32_DIG__ 6\000"
 2764      5433325F 
 2764      4449475F 
 2764      5F203600 
 2765              	.LASF345:
 2766 1749 5F5F5554 		.ascii	"__UTQ_FBIT__ 128\000"
 2766      515F4642 
 2766      49545F5F 
 2766      20313238 
 2766      00
 2767              	.LASF484:
 2768 175a 7372632F 		.ascii	"src/stars.c\000"
 2768      73746172 
 2768      732E6300 
 2769              	.LASF25:
 2770 1766 5F5F4348 		.ascii	"__CHAR_BIT__ 8\000"
 2770      41525F42 
 2770      49545F5F 
 2770      203800
 2771              	.LASF246:
 2772 1775 5F5F464C 		.ascii	"__FLT32X_IS_IEC_60559__ 1\000"
 2772      54333258 
 2772      5F49535F 
 2772      4945435F 
 2772      36303535 
 2773              	.LASF428:
 2774 178f 5F5F4152 		.ascii	"__ARM_FP\000"
 2774      4D5F4650 
 2774      00
 2775              	.LASF140:
 2776 1798 5F5F494E 		.ascii	"__INTPTR_WIDTH__ 32\000"
 2776      54505452 
 2776      5F574944 
 2776      54485F5F 
 2776      20333200 
 2777              	.LASF297:
 2778 17ac 5F5F4143 		.ascii	"__ACCUM_FBIT__ 15\000"
 2778      43554D5F 
 2778      46424954 
 2778      5F5F2031 
 2778      3500
 2779              	.LASF189:
 2780 17be 5F5F4C44 		.ascii	"__LDBL_MAX__ 1.7976931348623157e+308L\000"
 2780      424C5F4D 
 2780      41585F5F 
 2780      20312E37 
 2780      39373639 
 2781              	.LASF16:
ARM GAS  /tmp/ccXFiNL9.s 			page 67


 2782 17e4 5F5F4649 		.ascii	"__FINITE_MATH_ONLY__ 0\000"
 2782      4E495445 
 2782      5F4D4154 
 2782      485F4F4E 
 2782      4C595F5F 
 2783              	.LASF290:
 2784 17fb 5F5F5341 		.ascii	"__SACCUM_MAX__ 0X7FFFP-7HK\000"
 2784      4343554D 
 2784      5F4D4158 
 2784      5F5F2030 
 2784      58374646 
 2785              	.LASF416:
 2786 1816 5F5F6172 		.ascii	"__arm__ 1\000"
 2786      6D5F5F20 
 2786      3100
 2787              	.LASF181:
 2788 1820 5F5F4C44 		.ascii	"__LDBL_MANT_DIG__ 53\000"
 2788      424C5F4D 
 2788      414E545F 
 2788      4449475F 
 2788      5F203533 
 2789              	.LASF336:
 2790 1835 5F5F5451 		.ascii	"__TQ_IBIT__ 0\000"
 2790      5F494249 
 2790      545F5F20 
 2790      3000
 2791              	.LASF355:
 2792 1843 5F5F5548 		.ascii	"__UHA_FBIT__ 8\000"
 2792      415F4642 
 2792      49545F5F 
 2792      203800
 2793              	.LASF420:
 2794 1852 5F5F4743 		.ascii	"__GCC_ASM_FLAG_OUTPUTS__ 1\000"
 2794      435F4153 
 2794      4D5F464C 
 2794      41475F4F 
 2794      55545055 
 2795              	.LASF457:
 2796 186d 5F5F454C 		.ascii	"__ELF__ 1\000"
 2796      465F5F20 
 2796      3100
 2797              	.LASF414:
 2798 1877 5F5F4152 		.ascii	"__ARM_ARCH_PROFILE\000"
 2798      4D5F4152 
 2798      43485F50 
 2798      524F4649 
 2798      4C4500
 2799              	.LASF111:
 2800 188a 5F5F494E 		.ascii	"__INT16_C(c) c\000"
 2800      5431365F 
 2800      43286329 
 2800      206300
 2801              	.LASF384:
 2802 1899 5F5F4743 		.ascii	"__GCC_HAVE_DWARF2_CFI_ASM 1\000"
 2802      435F4841 
 2802      56455F44 
 2802      57415246 
ARM GAS  /tmp/ccXFiNL9.s 			page 68


 2802      325F4346 
 2803              	.LASF106:
 2804 18b5 5F5F5549 		.ascii	"__UINT64_MAX__ 0xffffffffffffffffULL\000"
 2804      4E543634 
 2804      5F4D4158 
 2804      5F5F2030 
 2804      78666666 
 2805              	.LASF310:
 2806 18da 5F5F4C41 		.ascii	"__LACCUM_MAX__ 0X7FFFFFFFFFFFFFFFP-31LK\000"
 2806      4343554D 
 2806      5F4D4158 
 2806      5F5F2030 
 2806      58374646 
 2807              	.LASF131:
 2808 1902 5F5F494E 		.ascii	"__INT_FAST32_MAX__ 0x7fffffff\000"
 2808      545F4641 
 2808      53543332 
 2808      5F4D4158 
 2808      5F5F2030 
 2809              	.LASF256:
 2810 1920 5F5F5553 		.ascii	"__USFRACT_EPSILON__ 0x1P-8UHR\000"
 2810      46524143 
 2810      545F4550 
 2810      53494C4F 
 2810      4E5F5F20 
 2811              	.LASF11:
 2812 193e 5F5F4154 		.ascii	"__ATOMIC_ACQUIRE 2\000"
 2812      4F4D4943 
 2812      5F414351 
 2812      55495245 
 2812      203200
 2813              	.LASF449:
 2814 1951 5F5F4152 		.ascii	"__ARM_FEATURE_COPROC 15\000"
 2814      4D5F4645 
 2814      41545552 
 2814      455F434F 
 2814      50524F43 
 2815              	.LASF0:
 2816 1969 5F5F5354 		.ascii	"__STDC__ 1\000"
 2816      44435F5F 
 2816      203100
 2817              	.LASF302:
 2818 1974 5F5F5541 		.ascii	"__UACCUM_FBIT__ 16\000"
 2818      4343554D 
 2818      5F464249 
 2818      545F5F20 
 2818      313600
 2819              	.LASF169:
 2820 1987 5F5F4442 		.ascii	"__DBL_MAX_EXP__ 1024\000"
 2820      4C5F4D41 
 2820      585F4558 
 2820      505F5F20 
 2820      31303234 
 2821              	.LASF14:
 2822 199c 5F5F4154 		.ascii	"__ATOMIC_CONSUME 1\000"
 2822      4F4D4943 
 2822      5F434F4E 
ARM GAS  /tmp/ccXFiNL9.s 			page 69


 2822      53554D45 
 2822      203100
 2823              	.LASF132:
 2824 19af 5F5F494E 		.ascii	"__INT_FAST32_WIDTH__ 32\000"
 2824      545F4641 
 2824      53543332 
 2824      5F574944 
 2824      54485F5F 
 2825              	.LASF432:
 2826 19c7 5F5F4152 		.ascii	"__ARM_FP16_ARGS\000"
 2826      4D5F4650 
 2826      31365F41 
 2826      52475300 
 2827              	.LASF38:
 2828 19d7 5F5F5749 		.ascii	"__WINT_TYPE__ unsigned int\000"
 2828      4E545F54 
 2828      5950455F 
 2828      5F20756E 
 2828      7369676E 
 2829              	.LASF74:
 2830 19f2 5F5F4C4F 		.ascii	"__LONG_MAX__ 0x7fffffffL\000"
 2830      4E475F4D 
 2830      41585F5F 
 2830      20307837 
 2830      66666666 
 2831              	.LASF100:
 2832 1a0b 5F5F494E 		.ascii	"__INT16_MAX__ 0x7fff\000"
 2832      5431365F 
 2832      4D41585F 
 2832      5F203078 
 2832      37666666 
 2833              	.LASF272:
 2834 1a20 5F5F554C 		.ascii	"__ULFRACT_FBIT__ 32\000"
 2834      46524143 
 2834      545F4642 
 2834      49545F5F 
 2834      20333200 
 2835              	.LASF82:
 2836 1a34 5F5F5343 		.ascii	"__SCHAR_WIDTH__ 8\000"
 2836      4841525F 
 2836      57494454 
 2836      485F5F20 
 2836      3800
 2837              	.LASF299:
 2838 1a46 5F5F4143 		.ascii	"__ACCUM_MIN__ (-0X1P15K-0X1P15K)\000"
 2838      43554D5F 
 2838      4D494E5F 
 2838      5F20282D 
 2838      30583150 
 2839              	.LASF22:
 2840 1a67 5F5F5349 		.ascii	"__SIZEOF_DOUBLE__ 8\000"
 2840      5A454F46 
 2840      5F444F55 
 2840      424C455F 
 2840      5F203800 
 2841              	.LASF7:
 2842 1a7b 5F5F474E 		.ascii	"__GNUC_PATCHLEVEL__ 0\000"
ARM GAS  /tmp/ccXFiNL9.s 			page 70


 2842      55435F50 
 2842      41544348 
 2842      4C455645 
 2842      4C5F5F20 
 2843              	.LASF456:
 2844 1a91 5F5F4758 		.ascii	"__GXX_TYPEINFO_EQUALITY_INLINE 0\000"
 2844      585F5459 
 2844      5045494E 
 2844      464F5F45 
 2844      5155414C 
 2845              	.LASF260:
 2846 1ab2 5F5F4652 		.ascii	"__FRACT_MAX__ 0X7FFFP-15R\000"
 2846      4143545F 
 2846      4D41585F 
 2846      5F203058 
 2846      37464646 
 2847              	.LASF47:
 2848 1acc 5F5F494E 		.ascii	"__INT64_TYPE__ long long int\000"
 2848      5436345F 
 2848      54595045 
 2848      5F5F206C 
 2848      6F6E6720 
 2849              	.LASF312:
 2850 1ae9 5F5F554C 		.ascii	"__ULACCUM_FBIT__ 32\000"
 2850      41434355 
 2850      4D5F4642 
 2850      49545F5F 
 2850      20333200 
 2851              	.LASF156:
 2852 1afd 5F5F464C 		.ascii	"__FLT_NORM_MAX__ 3.4028234663852886e+38F\000"
 2852      545F4E4F 
 2852      524D5F4D 
 2852      41585F5F 
 2852      20332E34 
 2853              	.LASF264:
 2854 1b26 5F5F5546 		.ascii	"__UFRACT_MIN__ 0.0UR\000"
 2854      52414354 
 2854      5F4D494E 
 2854      5F5F2030 
 2854      2E305552 
 2855              	.LASF439:
 2856 1b3b 5F5F4152 		.ascii	"__ARM_NEON_FP\000"
 2856      4D5F4E45 
 2856      4F4E5F46 
 2856      5000
 2857              	.LASF2:
 2858 1b49 5F5F5354 		.ascii	"__STDC_UTF_16__ 1\000"
 2858      44435F55 
 2858      54465F31 
 2858      365F5F20 
 2858      3100
 2859              	.LASF323:
 2860 1b5b 5F5F554C 		.ascii	"__ULLACCUM_IBIT__ 32\000"
 2860      4C414343 
 2860      554D5F49 
 2860      4249545F 
 2860      5F203332 
ARM GAS  /tmp/ccXFiNL9.s 			page 71


 2861              	.LASF258:
 2862 1b70 5F5F4652 		.ascii	"__FRACT_IBIT__ 0\000"
 2862      4143545F 
 2862      49424954 
 2862      5F5F2030 
 2862      00
 2863              	.LASF191:
 2864 1b81 5F5F4C44 		.ascii	"__LDBL_MIN__ 2.2250738585072014e-308L\000"
 2864      424C5F4D 
 2864      494E5F5F 
 2864      20322E32 
 2864      32353037 
 2865              	.LASF353:
 2866 1ba7 5F5F5441 		.ascii	"__TA_FBIT__ 63\000"
 2866      5F464249 
 2866      545F5F20 
 2866      363300
 2867              	.LASF195:
 2868 1bb6 5F5F4C44 		.ascii	"__LDBL_HAS_INFINITY__ 1\000"
 2868      424C5F48 
 2868      41535F49 
 2868      4E46494E 
 2868      4954595F 
 2869              	.LASF143:
 2870 1bce 5F5F4743 		.ascii	"__GCC_IEC_559_COMPLEX 0\000"
 2870      435F4945 
 2870      435F3535 
 2870      395F434F 
 2870      4D504C45 
 2871              	.LASF105:
 2872 1be6 5F5F5549 		.ascii	"__UINT32_MAX__ 0xffffffffUL\000"
 2872      4E543332 
 2872      5F4D4158 
 2872      5F5F2030 
 2872      78666666 
 2873              	.LASF183:
 2874 1c02 5F5F4C44 		.ascii	"__LDBL_MIN_EXP__ (-1021)\000"
 2874      424C5F4D 
 2874      494E5F45 
 2874      58505F5F 
 2874      20282D31 
 2875              	.LASF282:
 2876 1c1b 5F5F554C 		.ascii	"__ULLFRACT_FBIT__ 64\000"
 2876      4C465241 
 2876      43545F46 
 2876      4249545F 
 2876      5F203634 
 2877              	.LASF386:
 2878 1c30 5F5F5349 		.ascii	"__SIZEOF_WCHAR_T__ 4\000"
 2878      5A454F46 
 2878      5F574348 
 2878      41525F54 
 2878      5F5F2034 
 2879              	.LASF485:
 2880 1c45 2F686F6D 		.ascii	"/home/jacob/research/HabZonePlaydate\000"
 2880      652F6A61 
 2880      636F622F 
ARM GAS  /tmp/ccXFiNL9.s 			page 72


 2880      72657365 
 2880      61726368 
 2881              	.LASF462:
 2882 1c6a 73746172 		.ascii	"stars_h \000"
 2882      735F6820 
 2882      00
 2883              	.LASF31:
 2884 1c73 5F5F464C 		.ascii	"__FLOAT_WORD_ORDER__ __ORDER_LITTLE_ENDIAN__\000"
 2884      4F41545F 
 2884      574F5244 
 2884      5F4F5244 
 2884      45525F5F 
 2885              	.LASF300:
 2886 1ca0 5F5F4143 		.ascii	"__ACCUM_MAX__ 0X7FFFFFFFP-15K\000"
 2886      43554D5F 
 2886      4D41585F 
 2886      5F203058 
 2886      37464646 
 2887              	.LASF90:
 2888 1cbe 5F5F5349 		.ascii	"__SIZE_WIDTH__ 32\000"
 2888      5A455F57 
 2888      49445448 
 2888      5F5F2033 
 2888      3200
 2889              	.LASF405:
 2890 1cd0 5F5F4152 		.ascii	"__ARM_FEATURE_MVE\000"
 2890      4D5F4645 
 2890      41545552 
 2890      455F4D56 
 2890      4500
 2891              	.LASF97:
 2892 1ce2 5F5F5349 		.ascii	"__SIG_ATOMIC_MIN__ (-__SIG_ATOMIC_MAX__ - 1)\000"
 2892      475F4154 
 2892      4F4D4943 
 2892      5F4D494E 
 2892      5F5F2028 
 2893              	.LASF281:
 2894 1d0f 5F5F4C4C 		.ascii	"__LLFRACT_EPSILON__ 0x1P-63LLR\000"
 2894      46524143 
 2894      545F4550 
 2894      53494C4F 
 2894      4E5F5F20 
 2895              	.LASF455:
 2896 1d2e 5F5F4152 		.ascii	"__ARM_BF16_FORMAT_ALTERNATIVE\000"
 2896      4D5F4246 
 2896      31365F46 
 2896      4F524D41 
 2896      545F414C 
 2897              	.LASF85:
 2898 1d4c 5F5F4C4F 		.ascii	"__LONG_WIDTH__ 32\000"
 2898      4E475F57 
 2898      49445448 
 2898      5F5F2033 
 2898      3200
 2899              	.LASF247:
 2900 1d5e 5F5F5346 		.ascii	"__SFRACT_FBIT__ 7\000"
 2900      52414354 
ARM GAS  /tmp/ccXFiNL9.s 			page 73


 2900      5F464249 
 2900      545F5F20 
 2900      3700
 2901              	.LASF42:
 2902 1d70 5F5F4348 		.ascii	"__CHAR32_TYPE__ long unsigned int\000"
 2902      41523332 
 2902      5F545950 
 2902      455F5F20 
 2902      6C6F6E67 
 2903              	.LASF473:
 2904 1d92 474A3130 		.ascii	"GJ1061\000"
 2904      363100
 2905              	.LASF248:
 2906 1d99 5F5F5346 		.ascii	"__SFRACT_IBIT__ 0\000"
 2906      52414354 
 2906      5F494249 
 2906      545F5F20 
 2906      3000
 2907              	.LASF330:
 2908 1dab 5F5F4851 		.ascii	"__HQ_IBIT__ 0\000"
 2908      5F494249 
 2908      545F5F20 
 2908      3000
 2909              	.LASF364:
 2910 1db9 5F5F5553 		.ascii	"__USER_LABEL_PREFIX__ \000"
 2910      45525F4C 
 2910      4142454C 
 2910      5F505245 
 2910      4649585F 
 2911              	.LASF159:
 2912 1dd0 5F5F464C 		.ascii	"__FLT_DENORM_MIN__ 1.4012984643248171e-45F\000"
 2912      545F4445 
 2912      4E4F524D 
 2912      5F4D494E 
 2912      5F5F2031 
 2913              	.LASF58:
 2914 1dfb 5F5F5549 		.ascii	"__UINT_LEAST32_TYPE__ long unsigned int\000"
 2914      4E545F4C 
 2914      45415354 
 2914      33325F54 
 2914      5950455F 
 2915              	.LASF460:
 2916 1e23 54415247 		.ascii	"TARGET_PLAYDATE 1\000"
 2916      45545F50 
 2916      4C415944 
 2916      41544520 
 2916      3100
 2917              	.LASF333:
 2918 1e35 5F5F4451 		.ascii	"__DQ_FBIT__ 63\000"
 2918      5F464249 
 2918      545F5F20 
 2918      363300
 2919              	.LASF295:
 2920 1e44 5F5F5553 		.ascii	"__USACCUM_MAX__ 0XFFFFP-8UHK\000"
 2920      41434355 
 2920      4D5F4D41 
 2920      585F5F20 
ARM GAS  /tmp/ccXFiNL9.s 			page 74


 2920      30584646 
 2921              	.LASF408:
 2922 1e61 5F5F4152 		.ascii	"__ARM_FEATURE_LDREX 7\000"
 2922      4D5F4645 
 2922      41545552 
 2922      455F4C44 
 2922      52455820 
 2923              	.LASF98:
 2924 1e77 5F5F5349 		.ascii	"__SIG_ATOMIC_WIDTH__ 32\000"
 2924      475F4154 
 2924      4F4D4943 
 2924      5F574944 
 2924      54485F5F 
 2925              	.LASF454:
 2926 1e8f 5F5F4152 		.ascii	"__ARM_FEATURE_BF16_VECTOR_ARITHMETIC\000"
 2926      4D5F4645 
 2926      41545552 
 2926      455F4246 
 2926      31365F56 
 2927              	.LASF72:
 2928 1eb4 5F5F5348 		.ascii	"__SHRT_MAX__ 0x7fff\000"
 2928      52545F4D 
 2928      41585F5F 
 2928      20307837 
 2928      66666600 
 2929              	.LASF475:
 2930 1ec8 55736572 		.ascii	"UserDefStar\000"
 2930      44656653 
 2930      74617200 
 2931              	.LASF29:
 2932 1ed4 5F5F4F52 		.ascii	"__ORDER_PDP_ENDIAN__ 3412\000"
 2932      4445525F 
 2932      5044505F 
 2932      454E4449 
 2932      414E5F5F 
 2933              	.LASF332:
 2934 1eee 5F5F5351 		.ascii	"__SQ_IBIT__ 0\000"
 2934      5F494249 
 2934      545F5F20 
 2934      3000
 2935              	.LASF206:
 2936 1efc 5F5F464C 		.ascii	"__FLT32_NORM_MAX__ 3.4028234663852886e+38F32\000"
 2936      5433325F 
 2936      4E4F524D 
 2936      5F4D4158 
 2936      5F5F2033 
 2937              	.LASF154:
 2938 1f29 5F5F464C 		.ascii	"__FLT_DECIMAL_DIG__ 9\000"
 2938      545F4445 
 2938      43494D41 
 2938      4C5F4449 
 2938      475F5F20 
 2939              	.LASF370:
 2940 1f3f 5F5F4743 		.ascii	"__GCC_ATOMIC_BOOL_LOCK_FREE 2\000"
 2940      435F4154 
 2940      4F4D4943 
 2940      5F424F4F 
ARM GAS  /tmp/ccXFiNL9.s 			page 75


 2940      4C5F4C4F 
 2941              	.LASF101:
 2942 1f5d 5F5F494E 		.ascii	"__INT32_MAX__ 0x7fffffffL\000"
 2942      5433325F 
 2942      4D41585F 
 2942      5F203078 
 2942      37666666 
 2943              	.LASF470:
 2944 1f77 576F6C66 		.ascii	"Wolf1069\000"
 2944      31303639 
 2944      00
 2945              	.LASF88:
 2946 1f80 5F5F5749 		.ascii	"__WINT_WIDTH__ 32\000"
 2946      4E545F57 
 2946      49445448 
 2946      5F5F2033 
 2946      3200
 2947              	.LASF337:
 2948 1f92 5F5F5551 		.ascii	"__UQQ_FBIT__ 8\000"
 2948      515F4642 
 2948      49545F5F 
 2948      203800
 2949              	.LASF342:
 2950 1fa1 5F5F5553 		.ascii	"__USQ_IBIT__ 0\000"
 2950      515F4942 
 2950      49545F5F 
 2950      203000
 2951              	.LASF266:
 2952 1fb0 5F5F5546 		.ascii	"__UFRACT_EPSILON__ 0x1P-16UR\000"
 2952      52414354 
 2952      5F455053 
 2952      494C4F4E 
 2952      5F5F2030 
 2953              	.LASF488:
 2954 1fcd 63686563 		.ascii	"checkCurrentStar\000"
 2954      6B437572 
 2954      72656E74 
 2954      53746172 
 2954      00
 2955              	.LASF118:
 2956 1fde 5F5F494E 		.ascii	"__INT_LEAST64_WIDTH__ 64\000"
 2956      545F4C45 
 2956      41535436 
 2956      345F5749 
 2956      4454485F 
 2957              	.LASF46:
 2958 1ff7 5F5F494E 		.ascii	"__INT32_TYPE__ long int\000"
 2958      5433325F 
 2958      54595045 
 2958      5F5F206C 
 2958      6F6E6720 
 2959              	.LASF234:
 2960 200f 5F5F464C 		.ascii	"__FLT32X_MIN_10_EXP__ (-307)\000"
 2960      54333258 
 2960      5F4D494E 
 2960      5F31305F 
 2960      4558505F 
ARM GAS  /tmp/ccXFiNL9.s 			page 76


 2961              	.LASF453:
 2962 202c 5F5F4152 		.ascii	"__ARM_FEATURE_BF16_SCALAR_ARITHMETIC\000"
 2962      4D5F4645 
 2962      41545552 
 2962      455F4246 
 2962      31365F53 
 2963              	.LASF66:
 2964 2051 5F5F5549 		.ascii	"__UINT_FAST32_TYPE__ unsigned int\000"
 2964      4E545F46 
 2964      41535433 
 2964      325F5459 
 2964      50455F5F 
 2965              	.LASF446:
 2966 2073 5F5F4152 		.ascii	"__ARM_FEATURE_IDIV 1\000"
 2966      4D5F4645 
 2966      41545552 
 2966      455F4944 
 2966      49562031 
 2967              	.LASF185:
 2968 2088 5F5F4C44 		.ascii	"__LDBL_MAX_EXP__ 1024\000"
 2968      424C5F4D 
 2968      41585F45 
 2968      58505F5F 
 2968      20313032 
 2969              	.LASF331:
 2970 209e 5F5F5351 		.ascii	"__SQ_FBIT__ 31\000"
 2970      5F464249 
 2970      545F5F20 
 2970      333100
 2971              	.LASF269:
 2972 20ad 5F5F4C46 		.ascii	"__LFRACT_MIN__ (-0.5LR-0.5LR)\000"
 2972      52414354 
 2972      5F4D494E 
 2972      5F5F2028 
 2972      2D302E35 
 2973              	.LASF77:
 2974 20cb 5F5F5743 		.ascii	"__WCHAR_MIN__ 0U\000"
 2974      4841525F 
 2974      4D494E5F 
 2974      5F203055 
 2974      00
 2975              	.LASF222:
 2976 20dc 5F5F464C 		.ascii	"__FLT64_MAX__ 1.7976931348623157e+308F64\000"
 2976      5436345F 
 2976      4D41585F 
 2976      5F20312E 
 2976      37393736 
 2977              	.LASF123:
 2978 2105 5F5F5549 		.ascii	"__UINT_LEAST32_MAX__ 0xffffffffUL\000"
 2978      4E545F4C 
 2978      45415354 
 2978      33325F4D 
 2978      41585F5F 
 2979              	.LASF380:
 2980 2127 5F5F4743 		.ascii	"__GCC_DESTRUCTIVE_SIZE 64\000"
 2980      435F4445 
 2980      53545255 
ARM GAS  /tmp/ccXFiNL9.s 			page 77


 2980      43544956 
 2980      455F5349 
 2981              	.LASF421:
 2982 2141 5F5F7468 		.ascii	"__thumb__ 1\000"
 2982      756D625F 
 2982      5F203100 
 2983              	.LASF196:
 2984 214d 5F5F4C44 		.ascii	"__LDBL_HAS_QUIET_NAN__ 1\000"
 2984      424C5F48 
 2984      41535F51 
 2984      55494554 
 2984      5F4E414E 
 2985              	.LASF44:
 2986 2166 5F5F494E 		.ascii	"__INT8_TYPE__ signed char\000"
 2986      54385F54 
 2986      5950455F 
 2986      5F207369 
 2986      676E6564 
 2987              	.LASF78:
 2988 2180 5F5F5749 		.ascii	"__WINT_MAX__ 0xffffffffU\000"
 2988      4E545F4D 
 2988      41585F5F 
 2988      20307866 
 2988      66666666 
 2989              	.LASF188:
 2990 2199 5F5F4C44 		.ascii	"__LDBL_DECIMAL_DIG__ 17\000"
 2990      424C5F44 
 2990      4543494D 
 2990      414C5F44 
 2990      49475F5F 
 2991              	.LASF335:
 2992 21b1 5F5F5451 		.ascii	"__TQ_FBIT__ 127\000"
 2992      5F464249 
 2992      545F5F20 
 2992      31323700 
 2993              	.LASF339:
 2994 21c1 5F5F5548 		.ascii	"__UHQ_FBIT__ 16\000"
 2994      515F4642 
 2994      49545F5F 
 2994      20313600 
 2995              	.LASF472:
 2996 21d1 4C485331 		.ascii	"LHS1140\000"
 2996      31343000 
 2997              	.LASF138:
 2998 21d9 5F5F5549 		.ascii	"__UINT_FAST64_MAX__ 0xffffffffffffffffULL\000"
 2998      4E545F46 
 2998      41535436 
 2998      345F4D41 
 2998      585F5F20 
 2999              	.LASF137:
 3000 2203 5F5F5549 		.ascii	"__UINT_FAST32_MAX__ 0xffffffffU\000"
 3000      4E545F46 
 3000      41535433 
 3000      325F4D41 
 3000      585F5F20 
 3001              	.LASF252:
 3002 2223 5F5F5553 		.ascii	"__USFRACT_FBIT__ 8\000"
ARM GAS  /tmp/ccXFiNL9.s 			page 78


 3002      46524143 
 3002      545F4642 
 3002      49545F5F 
 3002      203800
 3003              	.LASF117:
 3004 2236 5F5F494E 		.ascii	"__INT64_C(c) c ## LL\000"
 3004      5436345F 
 3004      43286329 
 3004      20632023 
 3004      23204C4C 
 3005              	.LASF329:
 3006 224b 5F5F4851 		.ascii	"__HQ_FBIT__ 15\000"
 3006      5F464249 
 3006      545F5F20 
 3006      313500
 3007              	.LASF356:
 3008 225a 5F5F5548 		.ascii	"__UHA_IBIT__ 8\000"
 3008      415F4942 
 3008      49545F5F 
 3008      203800
 3009              	.LASF411:
 3010 2269 5F5F4152 		.ascii	"__ARM_FEATURE_SIMD32 1\000"
 3010      4D5F4645 
 3010      41545552 
 3010      455F5349 
 3010      4D443332 
 3011              	.LASF76:
 3012 2280 5F5F5743 		.ascii	"__WCHAR_MAX__ 0xffffffffU\000"
 3012      4841525F 
 3012      4D41585F 
 3012      5F203078 
 3012      66666666 
 3013              	.LASF19:
 3014 229a 5F5F5349 		.ascii	"__SIZEOF_LONG_LONG__ 8\000"
 3014      5A454F46 
 3014      5F4C4F4E 
 3014      475F4C4F 
 3014      4E475F5F 
 3015              	.LASF230:
 3016 22b1 5F5F464C 		.ascii	"__FLT64_IS_IEC_60559__ 1\000"
 3016      5436345F 
 3016      49535F49 
 3016      45435F36 
 3016      30353539 
 3017              	.LASF48:
 3018 22ca 5F5F5549 		.ascii	"__UINT8_TYPE__ unsigned char\000"
 3018      4E54385F 
 3018      54595045 
 3018      5F5F2075 
 3018      6E736967 
 3019              	.LASF83:
 3020 22e7 5F5F5348 		.ascii	"__SHRT_WIDTH__ 16\000"
 3020      52545F57 
 3020      49445448 
 3020      5F5F2031 
 3020      3600
 3021              	.LASF393:
ARM GAS  /tmp/ccXFiNL9.s 			page 79


 3022 22f9 5F5F4152 		.ascii	"__ARM_FEATURE_AES\000"
 3022      4D5F4645 
 3022      41545552 
 3022      455F4145 
 3022      5300
 3023              	.LASF158:
 3024 230b 5F5F464C 		.ascii	"__FLT_EPSILON__ 1.1920928955078125e-7F\000"
 3024      545F4550 
 3024      53494C4F 
 3024      4E5F5F20 
 3024      312E3139 
 3025              	.LASF55:
 3026 2332 5F5F494E 		.ascii	"__INT_LEAST64_TYPE__ long long int\000"
 3026      545F4C45 
 3026      41535436 
 3026      345F5459 
 3026      50455F5F 
 3027              	.LASF129:
 3028 2355 5F5F494E 		.ascii	"__INT_FAST16_MAX__ 0x7fffffff\000"
 3028      545F4641 
 3028      53543136 
 3028      5F4D4158 
 3028      5F5F2030 
 3029              	.LASF50:
 3030 2373 5F5F5549 		.ascii	"__UINT32_TYPE__ long unsigned int\000"
 3030      4E543332 
 3030      5F545950 
 3030      455F5F20 
 3030      6C6F6E67 
 3031              	.LASF184:
 3032 2395 5F5F4C44 		.ascii	"__LDBL_MIN_10_EXP__ (-307)\000"
 3032      424C5F4D 
 3032      494E5F31 
 3032      305F4558 
 3032      505F5F20 
 3033              	.LASF32:
 3034 23b0 5F5F5349 		.ascii	"__SIZEOF_POINTER__ 4\000"
 3034      5A454F46 
 3034      5F504F49 
 3034      4E544552 
 3034      5F5F2034 
 3035              	.LASF305:
 3036 23c5 5F5F5541 		.ascii	"__UACCUM_MAX__ 0XFFFFFFFFP-16UK\000"
 3036      4343554D 
 3036      5F4D4158 
 3036      5F5F2030 
 3036      58464646 
 3037              	.LASF427:
 3038 23e5 5F5F5646 		.ascii	"__VFP_FP__ 1\000"
 3038      505F4650 
 3038      5F5F2031 
 3038      00
 3039              	.LASF463:
 3040 23f2 4E554D5F 		.ascii	"NUM_PRESETS 10\000"
 3040      50524553 
 3040      45545320 
 3040      313000
ARM GAS  /tmp/ccXFiNL9.s 			page 80


 3041              	.LASF275:
 3042 2401 5F5F554C 		.ascii	"__ULFRACT_MAX__ 0XFFFFFFFFP-32ULR\000"
 3042      46524143 
 3042      545F4D41 
 3042      585F5F20 
 3042      30584646 
 3043              	.LASF471:
 3044 2423 4261726E 		.ascii	"BarnardsStar\000"
 3044      61726473 
 3044      53746172 
 3044      00
 3045              	.LASF347:
 3046 2430 5F5F4841 		.ascii	"__HA_FBIT__ 7\000"
 3046      5F464249 
 3046      545F5F20 
 3046      3700
 3047              	.LASF89:
 3048 243e 5F5F5054 		.ascii	"__PTRDIFF_WIDTH__ 32\000"
 3048      52444946 
 3048      465F5749 
 3048      4454485F 
 3048      5F203332 
 3049              	.LASF209:
 3050 2453 5F5F464C 		.ascii	"__FLT32_DENORM_MIN__ 1.4012984643248171e-45F32\000"
 3050      5433325F 
 3050      44454E4F 
 3050      524D5F4D 
 3050      494E5F5F 
 3051              	.LASF289:
 3052 2482 5F5F5341 		.ascii	"__SACCUM_MIN__ (-0X1P7HK-0X1P7HK)\000"
 3052      4343554D 
 3052      5F4D494E 
 3052      5F5F2028 
 3052      2D305831 
 3053              	.LASF84:
 3054 24a4 5F5F494E 		.ascii	"__INT_WIDTH__ 32\000"
 3054      545F5749 
 3054      4454485F 
 3054      5F203332 
 3054      00
 3055              	.LASF382:
 3056 24b5 5F5F4743 		.ascii	"__GCC_ATOMIC_POINTER_LOCK_FREE 2\000"
 3056      435F4154 
 3056      4F4D4943 
 3056      5F504F49 
 3056      4E544552 
 3057              	.LASF126:
 3058 24d6 5F5F5549 		.ascii	"__UINT64_C(c) c ## ULL\000"
 3058      4E543634 
 3058      5F432863 
 3058      29206320 
 3058      23232055 
 3059              	.LASF311:
 3060 24ed 5F5F4C41 		.ascii	"__LACCUM_EPSILON__ 0x1P-31LK\000"
 3060      4343554D 
 3060      5F455053 
 3060      494C4F4E 
ARM GAS  /tmp/ccXFiNL9.s 			page 81


 3060      5F5F2030 
 3061              	.LASF251:
 3062 250a 5F5F5346 		.ascii	"__SFRACT_EPSILON__ 0x1P-7HR\000"
 3062      52414354 
 3062      5F455053 
 3062      494C4F4E 
 3062      5F5F2030 
 3063              	.LASF338:
 3064 2526 5F5F5551 		.ascii	"__UQQ_IBIT__ 0\000"
 3064      515F4942 
 3064      49545F5F 
 3064      203000
 3065              	.LASF238:
 3066 2535 5F5F464C 		.ascii	"__FLT32X_MAX__ 1.7976931348623157e+308F32x\000"
 3066      54333258 
 3066      5F4D4158 
 3066      5F5F2031 
 3066      2E373937 
 3067              	.LASF341:
 3068 2560 5F5F5553 		.ascii	"__USQ_FBIT__ 32\000"
 3068      515F4642 
 3068      49545F5F 
 3068      20333200 
 3069              	.LASF1:
 3070 2570 5F5F5354 		.ascii	"__STDC_VERSION__ 201710L\000"
 3070      44435F56 
 3070      45525349 
 3070      4F4E5F5F 
 3070      20323031 
 3071              	.LASF443:
 3072 2589 5F5F4152 		.ascii	"__ARM_EABI__ 1\000"
 3072      4D5F4541 
 3072      42495F5F 
 3072      203100
 3073              	.LASF373:
 3074 2598 5F5F4743 		.ascii	"__GCC_ATOMIC_CHAR32_T_LOCK_FREE 2\000"
 3074      435F4154 
 3074      4F4D4943 
 3074      5F434841 
 3074      5233325F 
 3075              	.LASF459:
 3076 25ba 5F5F4650 		.ascii	"__FPU_USED 1\000"
 3076      555F5553 
 3076      45442031 
 3076      00
 3077              	.LASF261:
 3078 25c7 5F5F4652 		.ascii	"__FRACT_EPSILON__ 0x1P-15R\000"
 3078      4143545F 
 3078      45505349 
 3078      4C4F4E5F 
 3078      5F203078 
 3079              	.LASF4:
 3080 25e2 5F5F5354 		.ascii	"__STDC_HOSTED__ 1\000"
 3080      44435F48 
 3080      4F535445 
 3080      445F5F20 
 3080      3100
ARM GAS  /tmp/ccXFiNL9.s 			page 82


 3081              	.LASF139:
 3082 25f4 5F5F494E 		.ascii	"__INTPTR_MAX__ 0x7fffffff\000"
 3082      54505452 
 3082      5F4D4158 
 3082      5F5F2030 
 3082      78376666 
 3083              	.LASF385:
 3084 260e 5F5F5052 		.ascii	"__PRAGMA_REDEFINE_EXTNAME 1\000"
 3084      41474D41 
 3084      5F524544 
 3084      4546494E 
 3084      455F4558 
 3085              	.LASF225:
 3086 262a 5F5F464C 		.ascii	"__FLT64_EPSILON__ 2.2204460492503131e-16F64\000"
 3086      5436345F 
 3086      45505349 
 3086      4C4F4E5F 
 3086      5F20322E 
 3087              	.LASF378:
 3088 2656 5F5F4743 		.ascii	"__GCC_ATOMIC_LLONG_LOCK_FREE 1\000"
 3088      435F4154 
 3088      4F4D4943 
 3088      5F4C4C4F 
 3088      4E475F4C 
 3089              	.LASF369:
 3090 2675 5F5F4743 		.ascii	"__GCC_HAVE_SYNC_COMPARE_AND_SWAP_4 1\000"
 3090      435F4841 
 3090      56455F53 
 3090      594E435F 
 3090      434F4D50 
 3091              	.LASF152:
 3092 269a 5F5F464C 		.ascii	"__FLT_MAX_EXP__ 128\000"
 3092      545F4D41 
 3092      585F4558 
 3092      505F5F20 
 3092      31323800 
 3093              	.LASF13:
 3094 26ae 5F5F4154 		.ascii	"__ATOMIC_ACQ_REL 4\000"
 3094      4F4D4943 
 3094      5F414351 
 3094      5F52454C 
 3094      203400
 3095              	.LASF67:
 3096 26c1 5F5F5549 		.ascii	"__UINT_FAST64_TYPE__ long long unsigned int\000"
 3096      4E545F46 
 3096      41535436 
 3096      345F5459 
 3096      50455F5F 
 3097              	.LASF465:
 3098 26ed 756E7369 		.ascii	"unsigned char\000"
 3098      676E6564 
 3098      20636861 
 3098      7200
 3099              	.LASF40:
 3100 26fb 5F5F5549 		.ascii	"__UINTMAX_TYPE__ long long unsigned int\000"
 3100      4E544D41 
 3100      585F5459 
ARM GAS  /tmp/ccXFiNL9.s 			page 83


 3100      50455F5F 
 3100      206C6F6E 
 3101              	.LASF217:
 3102 2723 5F5F464C 		.ascii	"__FLT64_MIN_EXP__ (-1021)\000"
 3102      5436345F 
 3102      4D494E5F 
 3102      4558505F 
 3102      5F20282D 
 3103              	.LASF239:
 3104 273d 5F5F464C 		.ascii	"__FLT32X_NORM_MAX__ 1.7976931348623157e+308F32x\000"
 3104      54333258 
 3104      5F4E4F52 
 3104      4D5F4D41 
 3104      585F5F20 
 3105              	.LASF192:
 3106 276d 5F5F4C44 		.ascii	"__LDBL_EPSILON__ 2.2204460492503131e-16L\000"
 3106      424C5F45 
 3106      5053494C 
 3106      4F4E5F5F 
 3106      20322E32 
 3107              	.LASF68:
 3108 2796 5F5F494E 		.ascii	"__INTPTR_TYPE__ int\000"
 3108      54505452 
 3108      5F545950 
 3108      455F5F20 
 3108      696E7400 
 3109              	.LASF442:
 3110 27aa 5F5F4152 		.ascii	"__ARM_PCS_VFP 1\000"
 3110      4D5F5043 
 3110      535F5646 
 3110      50203100 
 3111              	.LASF146:
 3112 27ba 5F5F4445 		.ascii	"__DEC_EVAL_METHOD__ 2\000"
 3112      435F4556 
 3112      414C5F4D 
 3112      4554484F 
 3112      445F5F20 
 3113              	.LASF294:
 3114 27d0 5F5F5553 		.ascii	"__USACCUM_MIN__ 0.0UHK\000"
 3114      41434355 
 3114      4D5F4D49 
 3114      4E5F5F20 
 3114      302E3055 
 3115              	.LASF253:
 3116 27e7 5F5F5553 		.ascii	"__USFRACT_IBIT__ 0\000"
 3116      46524143 
 3116      545F4942 
 3116      49545F5F 
 3116      203000
 3117              	.LASF115:
 3118 27fa 5F5F494E 		.ascii	"__INT_LEAST32_WIDTH__ 32\000"
 3118      545F4C45 
 3118      41535433 
 3118      325F5749 
 3118      4454485F 
 3119              	.LASF56:
 3120 2813 5F5F5549 		.ascii	"__UINT_LEAST8_TYPE__ unsigned char\000"
ARM GAS  /tmp/ccXFiNL9.s 			page 84


 3120      4E545F4C 
 3120      45415354 
 3120      385F5459 
 3120      50455F5F 
 3121              	.LASF34:
 3122 2836 5F5F474E 		.ascii	"__GNUC_WIDE_EXECUTION_CHARSET_NAME \"UTF-32LE\"\000"
 3122      55435F57 
 3122      4944455F 
 3122      45584543 
 3122      5554494F 
 3123              	.LASF334:
 3124 2864 5F5F4451 		.ascii	"__DQ_IBIT__ 0\000"
 3124      5F494249 
 3124      545F5F20 
 3124      3000
 3125              	.LASF155:
 3126 2872 5F5F464C 		.ascii	"__FLT_MAX__ 3.4028234663852886e+38F\000"
 3126      545F4D41 
 3126      585F5F20 
 3126      332E3430 
 3126      32383233 
 3127              	.LASF207:
 3128 2896 5F5F464C 		.ascii	"__FLT32_MIN__ 1.1754943508222875e-38F32\000"
 3128      5433325F 
 3128      4D494E5F 
 3128      5F20312E 
 3128      31373534 
 3129              	.LASF35:
 3130 28be 5F5F5349 		.ascii	"__SIZE_TYPE__ unsigned int\000"
 3130      5A455F54 
 3130      5950455F 
 3130      5F20756E 
 3130      7369676E 
 3131              	.LASF322:
 3132 28d9 5F5F554C 		.ascii	"__ULLACCUM_FBIT__ 32\000"
 3132      4C414343 
 3132      554D5F46 
 3132      4249545F 
 3132      5F203332 
 3133              	.LASF468:
 3134 28ee 50656761 		.ascii	"Pegasi51\000"
 3134      73693531 
 3134      00
 3135              	.LASF180:
 3136 28f7 5F5F4442 		.ascii	"__DBL_IS_IEC_60559__ 1\000"
 3136      4C5F4953 
 3136      5F494543 
 3136      5F363035 
 3136      35395F5F 
 3137              	.LASF375:
 3138 290e 5F5F4743 		.ascii	"__GCC_ATOMIC_SHORT_LOCK_FREE 2\000"
 3138      435F4154 
 3138      4F4D4943 
 3138      5F53484F 
 3138      52545F4C 
 3139              	.LASF362:
 3140 292d 5F5F5554 		.ascii	"__UTA_IBIT__ 64\000"
ARM GAS  /tmp/ccXFiNL9.s 			page 85


 3140      415F4942 
 3140      49545F5F 
 3140      20363400 
 3141              	.LASF151:
 3142 293d 5F5F464C 		.ascii	"__FLT_MIN_10_EXP__ (-37)\000"
 3142      545F4D49 
 3142      4E5F3130 
 3142      5F455850 
 3142      5F5F2028 
 3143              	.LASF164:
 3144 2956 5F5F464C 		.ascii	"__FLT_IS_IEC_60559__ 1\000"
 3144      545F4953 
 3144      5F494543 
 3144      5F363035 
 3144      35395F5F 
 3145              	.LASF241:
 3146 296d 5F5F464C 		.ascii	"__FLT32X_EPSILON__ 2.2204460492503131e-16F32x\000"
 3146      54333258 
 3146      5F455053 
 3146      494C4F4E 
 3146      5F5F2032 
 3147              	.LASF461:
 3148 299b 54415247 		.ascii	"TARGET_EXTENSION 1\000"
 3148      45545F45 
 3148      5854454E 
 3148      53494F4E 
 3148      203100
 3149              	.LASF145:
 3150 29ae 5F5F464C 		.ascii	"__FLT_EVAL_METHOD_TS_18661_3__ 0\000"
 3150      545F4556 
 3150      414C5F4D 
 3150      4554484F 
 3150      445F5453 
 3151              	.LASF178:
 3152 29cf 5F5F4442 		.ascii	"__DBL_HAS_INFINITY__ 1\000"
 3152      4C5F4841 
 3152      535F494E 
 3152      46494E49 
 3152      54595F5F 
 3153              	.LASF390:
 3154 29e6 5F5F4152 		.ascii	"__ARM_FEATURE_QBIT 1\000"
 3154      4D5F4645 
 3154      41545552 
 3154      455F5142 
 3154      49542031 
 3155              	.LASF62:
 3156 29fb 5F5F494E 		.ascii	"__INT_FAST32_TYPE__ int\000"
 3156      545F4641 
 3156      53543332 
 3156      5F545950 
 3156      455F5F20 
 3157              	.LASF162:
 3158 2a13 5F5F464C 		.ascii	"__FLT_HAS_QUIET_NAN__ 1\000"
 3158      545F4841 
 3158      535F5155 
 3158      4945545F 
 3158      4E414E5F 
ARM GAS  /tmp/ccXFiNL9.s 			page 86


 3159              	.LASF17:
 3160 2a2b 5F5F5349 		.ascii	"__SIZEOF_INT__ 4\000"
 3160      5A454F46 
 3160      5F494E54 
 3160      5F5F2034 
 3160      00
 3161              	.LASF39:
 3162 2a3c 5F5F494E 		.ascii	"__INTMAX_TYPE__ long long int\000"
 3162      544D4158 
 3162      5F545950 
 3162      455F5F20 
 3162      6C6F6E67 
 3163              	.LASF92:
 3164 2a5a 5F5F494E 		.ascii	"__INTMAX_C(c) c ## LL\000"
 3164      544D4158 
 3164      5F432863 
 3164      29206320 
 3164      2323204C 
 3165              	.LASF419:
 3166 2a70 5F5F4150 		.ascii	"__APCS_32__ 1\000"
 3166      43535F33 
 3166      325F5F20 
 3166      3100
 3167              	.LASF483:
 3168 2a7e 474E5520 		.ascii	"GNU C17 14.1.0 -mthumb -mcpu=cortex-m7 -mfloat-abi="
 3168      43313720 
 3168      31342E31 
 3168      2E30202D 
 3168      6D746875 
 3169 2ab1 68617264 		.ascii	"hard -mfpu=fpv5-sp-d16 -mword-relocations -march=ar"
 3169      202D6D66 
 3169      70753D66 
 3169      7076352D 
 3169      73702D64 
 3170 2ae4 6D763765 		.ascii	"mv7e-m+fpv5 -g3 -gdwarf-2 -O2 -falign-functions=16 "
 3170      2D6D2B66 
 3170      70763520 
 3170      2D673320 
 3170      2D676477 
 3171 2b17 2D666F6D 		.ascii	"-fomit-frame-pointer -fno-common -ffunction-section"
 3171      69742D66 
 3171      72616D65 
 3171      2D706F69 
 3171      6E746572 
 3172 2b4a 73202D66 		.ascii	"s -fdata-sections -fsingle-precision-constant\000"
 3172      64617461 
 3172      2D736563 
 3172      74696F6E 
 3172      73202D66 
 3173              	.LASF51:
 3174 2b78 5F5F5549 		.ascii	"__UINT64_TYPE__ long long unsigned int\000"
 3174      4E543634 
 3174      5F545950 
 3174      455F5F20 
 3174      6C6F6E67 
 3175              	.LASF245:
 3176 2b9f 5F5F464C 		.ascii	"__FLT32X_HAS_QUIET_NAN__ 1\000"
ARM GAS  /tmp/ccXFiNL9.s 			page 87


 3176      54333258 
 3176      5F484153 
 3176      5F515549 
 3176      45545F4E 
 3177              	.LASF170:
 3178 2bba 5F5F4442 		.ascii	"__DBL_MAX_10_EXP__ 308\000"
 3178      4C5F4D41 
 3178      585F3130 
 3178      5F455850 
 3178      5F5F2033 
 3179              	.LASF240:
 3180 2bd1 5F5F464C 		.ascii	"__FLT32X_MIN__ 2.2250738585072014e-308F32x\000"
 3180      54333258 
 3180      5F4D494E 
 3180      5F5F2032 
 3180      2E323235 
 3181              	.LASF371:
 3182 2bfc 5F5F4743 		.ascii	"__GCC_ATOMIC_CHAR_LOCK_FREE 2\000"
 3182      435F4154 
 3182      4F4D4943 
 3182      5F434841 
 3182      525F4C4F 
 3183              	.LASF354:
 3184 2c1a 5F5F5441 		.ascii	"__TA_IBIT__ 64\000"
 3184      5F494249 
 3184      545F5F20 
 3184      363400
 3185              	.LASF327:
 3186 2c29 5F5F5151 		.ascii	"__QQ_FBIT__ 7\000"
 3186      5F464249 
 3186      545F5F20 
 3186      3700
 3187              	.LASF244:
 3188 2c37 5F5F464C 		.ascii	"__FLT32X_HAS_INFINITY__ 1\000"
 3188      54333258 
 3188      5F484153 
 3188      5F494E46 
 3188      494E4954 
 3189              	.LASF415:
 3190 2c51 5F5F4152 		.ascii	"__ARM_ARCH_PROFILE 77\000"
 3190      4D5F4152 
 3190      43485F50 
 3190      524F4649 
 3190      4C452037 
 3191              	.LASF128:
 3192 2c67 5F5F494E 		.ascii	"__INT_FAST8_WIDTH__ 32\000"
 3192      545F4641 
 3192      5354385F 
 3192      57494454 
 3192      485F5F20 
 3193              	.LASF482:
 3194 2c7e 63757272 		.ascii	"current\000"
 3194      656E7400 
 3195              	.LASF150:
 3196 2c86 5F5F464C 		.ascii	"__FLT_MIN_EXP__ (-125)\000"
 3196      545F4D49 
 3196      4E5F4558 
ARM GAS  /tmp/ccXFiNL9.s 			page 88


 3196      505F5F20 
 3196      282D3132 
 3197              	.LASF452:
 3198 2c9d 5F5F4152 		.ascii	"__ARM_FEATURE_MATMUL_INT8\000"
 3198      4D5F4645 
 3198      41545552 
 3198      455F4D41 
 3198      544D554C 
 3199              	.LASF469:
 3200 2cb7 4B323138 		.ascii	"K218\000"
 3200      00
 3201              	.LASF187:
 3202 2cbc 5F5F4445 		.ascii	"__DECIMAL_DIG__ 17\000"
 3202      43494D41 
 3202      4C5F4449 
 3202      475F5F20 
 3202      313700
 3203              	.LASF486:
 3204 2ccf 53746172 		.ascii	"Star\000"
 3204      00
 3205              	.LASF114:
 3206 2cd4 5F5F494E 		.ascii	"__INT32_C(c) c ## L\000"
 3206      5433325F 
 3206      43286329 
 3206      20632023 
 3206      23204C00 
 3207              	.LASF401:
 3208 2ce8 5F5F4152 		.ascii	"__ARM_FEATURE_PAUTH\000"
 3208      4D5F4645 
 3208      41545552 
 3208      455F5041 
 3208      55544800 
 3209              	.LASF487:
 3210 2cfc 73746172 		.ascii	"starlabels\000"
 3210      6C616265 
 3210      6C7300
 3211              	.LASF186:
 3212 2d07 5F5F4C44 		.ascii	"__LDBL_MAX_10_EXP__ 308\000"
 3212      424C5F4D 
 3212      41585F31 
 3212      305F4558 
 3212      505F5F20 
 3213              	.LASF236:
 3214 2d1f 5F5F464C 		.ascii	"__FLT32X_MAX_10_EXP__ 308\000"
 3214      54333258 
 3214      5F4D4158 
 3214      5F31305F 
 3214      4558505F 
 3215              	.LASF141:
 3216 2d39 5F5F5549 		.ascii	"__UINTPTR_MAX__ 0xffffffffU\000"
 3216      4E545054 
 3216      525F4D41 
 3216      585F5F20 
 3216      30786666 
 3217              	.LASF177:
 3218 2d55 5F5F4442 		.ascii	"__DBL_HAS_DENORM__ 1\000"
 3218      4C5F4841 
ARM GAS  /tmp/ccXFiNL9.s 			page 89


 3218      535F4445 
 3218      4E4F524D 
 3218      5F5F2031 
 3219              	.LASF33:
 3220 2d6a 5F5F474E 		.ascii	"__GNUC_EXECUTION_CHARSET_NAME \"UTF-8\"\000"
 3220      55435F45 
 3220      58454355 
 3220      54494F4E 
 3220      5F434841 
 3221              	.LASF479:
 3222 2d90 73746172 		.ascii	"starTemps\000"
 3222      54656D70 
 3222      7300
 3223              	.LASF397:
 3224 2d9a 5F5F4152 		.ascii	"__ARM_FEATURE_CRC32\000"
 3224      4D5F4645 
 3224      41545552 
 3224      455F4352 
 3224      43333200 
 3225              	.LASF203:
 3226 2dae 5F5F464C 		.ascii	"__FLT32_MAX_10_EXP__ 38\000"
 3226      5433325F 
 3226      4D41585F 
 3226      31305F45 
 3226      58505F5F 
 3227              	.LASF391:
 3228 2dc6 5F5F4152 		.ascii	"__ARM_FEATURE_SAT 1\000"
 3228      4D5F4645 
 3228      41545552 
 3228      455F5341 
 3228      54203100 
 3229              	.LASF270:
 3230 2dda 5F5F4C46 		.ascii	"__LFRACT_MAX__ 0X7FFFFFFFP-31LR\000"
 3230      52414354 
 3230      5F4D4158 
 3230      5F5F2030 
 3230      58374646 
 3231              	.LASF441:
 3232 2dfa 5F5F4152 		.ascii	"__ARM_ARCH_7EM__ 1\000"
 3232      4D5F4152 
 3232      43485F37 
 3232      454D5F5F 
 3232      203100
 3233              	.LASF113:
 3234 2e0d 5F5F494E 		.ascii	"__INT_LEAST32_MAX__ 0x7fffffffL\000"
 3234      545F4C45 
 3234      41535433 
 3234      325F4D41 
 3234      585F5F20 
 3235              	.LASF93:
 3236 2e2d 5F5F5549 		.ascii	"__UINTMAX_MAX__ 0xffffffffffffffffULL\000"
 3236      4E544D41 
 3236      585F4D41 
 3236      585F5F20 
 3236      30786666 
 3237              	.LASF43:
 3238 2e53 5F5F5349 		.ascii	"__SIG_ATOMIC_TYPE__ int\000"
ARM GAS  /tmp/ccXFiNL9.s 			page 90


 3238      475F4154 
 3238      4F4D4943 
 3238      5F545950 
 3238      455F5F20 
 3239              	.LASF279:
 3240 2e6b 5F5F4C4C 		.ascii	"__LLFRACT_MIN__ (-0.5LLR-0.5LLR)\000"
 3240      46524143 
 3240      545F4D49 
 3240      4E5F5F20 
 3240      282D302E 
 3241              	.LASF436:
 3242 2e8c 5F5F4152 		.ascii	"__ARM_FEATURE_FMA 1\000"
 3242      4D5F4645 
 3242      41545552 
 3242      455F464D 
 3242      41203100 
 3243              	.LASF286:
 3244 2ea0 5F5F554C 		.ascii	"__ULLFRACT_EPSILON__ 0x1P-64ULLR\000"
 3244      4C465241 
 3244      43545F45 
 3244      5053494C 
 3244      4F4E5F5F 
 3245              	.LASF194:
 3246 2ec1 5F5F4C44 		.ascii	"__LDBL_HAS_DENORM__ 1\000"
 3246      424C5F48 
 3246      41535F44 
 3246      454E4F52 
 3246      4D5F5F20 
 3247              	.LASF121:
 3248 2ed7 5F5F5549 		.ascii	"__UINT_LEAST16_MAX__ 0xffff\000"
 3248      4E545F4C 
 3248      45415354 
 3248      31365F4D 
 3248      41585F5F 
 3249              	.LASF474:
 3250 2ef3 4B65706C 		.ascii	"Kepler22\000"
 3250      65723232 
 3250      00
 3251              	.LASF190:
 3252 2efc 5F5F4C44 		.ascii	"__LDBL_NORM_MAX__ 1.7976931348623157e+308L\000"
 3252      424C5F4E 
 3252      4F524D5F 
 3252      4D41585F 
 3252      5F20312E 
 3253              	.LASF326:
 3254 2f27 5F5F554C 		.ascii	"__ULLACCUM_EPSILON__ 0x1P-32ULLK\000"
 3254      4C414343 
 3254      554D5F45 
 3254      5053494C 
 3254      4F4E5F5F 
 3255              	.LASF292:
 3256 2f48 5F5F5553 		.ascii	"__USACCUM_FBIT__ 8\000"
 3256      41434355 
 3256      4D5F4642 
 3256      49545F5F 
 3256      203800
 3257              	.LASF160:
ARM GAS  /tmp/ccXFiNL9.s 			page 91


 3258 2f5b 5F5F464C 		.ascii	"__FLT_HAS_DENORM__ 1\000"
 3258      545F4841 
 3258      535F4445 
 3258      4E4F524D 
 3258      5F5F2031 
 3259              	.LASF134:
 3260 2f70 5F5F494E 		.ascii	"__INT_FAST64_WIDTH__ 64\000"
 3260      545F4641 
 3260      53543634 
 3260      5F574944 
 3260      54485F5F 
 3261              	.LASF171:
 3262 2f88 5F5F4442 		.ascii	"__DBL_DECIMAL_DIG__ 17\000"
 3262      4C5F4445 
 3262      43494D41 
 3262      4C5F4449 
 3262      475F5F20 
 3263              		.ident	"GCC: (Fedora 14.1.0-3.fc42) 14.1.0"
ARM GAS  /tmp/ccXFiNL9.s 			page 92


DEFINED SYMBOLS
                            *ABS*:00000000 stars.c
     /tmp/ccXFiNL9.s:26     .text.changePresetStar:00000000 $t
     /tmp/ccXFiNL9.s:33     .text.changePresetStar:00000000 changePresetStar
     /tmp/ccXFiNL9.s:95     .text.changePresetStar:00000024 $d
     /tmp/ccXFiNL9.s:176    .rodata.starLums:00000000 starLums
     /tmp/ccXFiNL9.s:191    .rodata.starTemps:00000000 starTemps
     /tmp/ccXFiNL9.s:101    .text.checkCurrentStar:00000000 $t
     /tmp/ccXFiNL9.s:108    .text.checkCurrentStar:00000000 checkCurrentStar
     /tmp/ccXFiNL9.s:167    .text.checkCurrentStar:00000034 $d
     /tmp/ccXFiNL9.s:173    .rodata.starLums:00000000 $d
     /tmp/ccXFiNL9.s:188    .rodata.starTemps:00000000 $d
                           .group:00000000 wm4.0.579c843c69bde93f83ac1a11d59e64c7
                           .group:00000000 wm4.stars.h.2.e58ad37bc5ce2270962eee581f90386b

NO UNDEFINED SYMBOLS
